(dp0
VU051RUE9E
p1
(iUser
User
p2
(dp3
S'username'
p4
Vsgreco
p5
sS'exercise_counts'
p6
(dp7
I0
I3
sI1
I8
sI2
I2
sI3
I2
sI4
I5
sI5
I1
sI6
I5
sI7
I3
sI8
I3
ssS'past_workouts'
p8
(dp9
S'2015-06-26 15:23:02.611513'
p10
(dp11
ssS'real_name'
p12
VStephen Greco
p13
sS'exercise_history'
p14
(lp15
(lp16
S'2015-06-30T16:05:07.979226'
p17
aI4
aVcalf raises
p18
aI24
aVrep
p19
aa(lp20
S'2015-07-01T11:47:15.132570'
p21
aI3
aVchair dips
p22
aI10
aVrep
p23
aa(lp24
S'2015-07-01T16:40:54.522561'
p25
aI1
aVplanks
p26
aI41
aVsecond
p27
aa(lp28
S'2015-07-02T13:36:41.815710'
p29
aI5
aVjumping jacks
p30
aI22
aVrep
p31
aa(lp32
S'2015-07-06T13:35:51.347616'
p33
aI7
aVsitups
p34
aI17
aVrep
p35
aa(lp36
S'2015-07-07T11:02:34.041232'
p37
aI6
aVsquats
p38
aI19
aVrep
p39
aa(lp40
S'2015-07-07T11:31:41.196437'
p41
aI4
aVcalf raises
p42
aI30
aVrep
p43
aa(lp44
S'2015-07-07T11:59:58.221774'
p45
aI1
aVplanks
p46
aI60
aVsecond
p47
aa(lp48
S'2015-07-07T12:28:29.280232'
p49
aI6
aVsquats
p50
aI30
aVrep
p51
aa(lp52
S'2015-07-07T13:17:43.541966'
p53
aI2
aVwall sit
p54
aI45
aVsecond
p55
aa(lp56
S'2015-07-07T13:52:26.582388'
p57
aI1
aVplanks
p58
aI55
aVsecond
p59
aa(lp60
S'2015-07-07T16:40:30.997435'
p61
aI0
aVpushups
p62
aI17
aVrep
p63
aa(lp64
S'2015-07-09T13:12:58.838351'
p65
aI3
aVchair dips
p66
aI9
aVrep
p67
aa(lp68
S'2015-07-09T16:14:30.514020'
p69
aI1
aVplanks
p70
aI43
aVsecond
p71
aa(lp72
S'2015-07-13T14:42:54.403209'
p73
aI1
aVplanks
p74
aI53
aVsecond
p75
aa(lp76
S'2015-07-13T17:32:57.165284'
p77
aI8
aVburpees
p78
aI3
aVrep
p79
aa(lp80
S'2015-07-14T12:01:51.728273'
p81
aI7
aVsitups
p82
aI16
aVrep
p83
aa(lp84
S'2015-07-14T13:45:17.213196'
p85
aI4
aVcalf raises
p86
aI29
aVrep
p87
aa(lp88
S'2015-07-15T15:29:47.425498'
p89
aI2
aVwall sit
p90
aI47
aVsecond
p91
aa(lp92
S'2015-07-15T18:08:09.689379'
p93
aI6
aVsquats
p94
aI23
aVrep
p95
aa(lp96
S'2015-07-15T19:53:30.829103'
p97
aI7
aVsitups
p98
aI24
aVrep
p99
aa(lp100
S'2015-07-16T16:46:26.925555'
p101
aI1
aVplanks
p102
aI42
aVsecond
p103
aa(lp104
S'2015-07-16T17:50:16.817901'
p105
aI4
aVcalf raises
p106
aI28
aVrep
p107
aa(lp108
S'2015-07-21T12:29:48.031446'
p109
aI1
aVplanks
p110
aI58
aVsecond
p111
aa(lp112
S'2015-07-22T11:10:28.009245'
p113
aI1
aVplanks
p114
aI56
aVsecond
p115
aa(lp116
S'2015-07-22T11:44:14.126345'
p117
aI0
aVpushups
p118
aI9
aVrep
p119
aa(lp120
S'2015-07-22T12:17:32.355277'
p121
aI6
aVsquats
p122
aI21
aVrep
p123
aa(lp124
S'2015-07-22T15:30:10.478095'
p125
aI8
aVburpees
p126
aI1
aVrep
p127
aa(lp128
S'2015-07-30T11:13:46.420246'
p129
aI8
aVburpees
p130
aI3
aVrep
p131
aa(lp132
S'2015-07-30T14:07:42.144718'
p133
aI0
aVpushups
p134
aI15
aVrep
p135
aa(lp136
S'2015-07-30T15:14:14.081016'
p137
aI4
aVcalf raises
p138
aI28
aVrep
p139
aa(lp140
S'2015-07-30T16:56:30.452837'
p141
aI6
aVsquats
p142
aI29
aVrep
p143
aasS'exercises'
p144
(dp145
I0
I41
sI1
I408
sI2
I92
sI3
I19
sI4
I139
sI5
I22
sI6
I122
sI7
I57
sI8
I7
ssS'id'
p146
g1
sbsVU051RU35E
p147
(iUser
User
p148
(dp149
g4
Vnoahmo
p150
sg6
(dp151
I0
I4
sI1
I2
sI2
I3
sI3
I3
sI4
I6
sI5
I1
sI6
I8
sI7
I4
sI8
I3
ssg8
(dp152
S'2015-06-26 15:23:02.611548'
p153
(dp154
ssg12
VNoah Morrison
p155
sg14
(lp156
(lp157
S'2015-06-30T16:05:07.979247'
p158
aI4
ag18
aI24
ag19
aa(lp159
S'2015-07-01T11:13:10.484587'
p160
aI0
aVpushups
p161
aI12
aVrep
p162
aa(lp163
S'2015-07-01T15:41:17.492956'
p164
aI3
aVchair dips
p165
aI11
aVrep
p166
aa(lp167
S'2015-07-02T10:56:49.502474'
p168
aI4
aVcalf raises
p169
aI21
aVrep
p170
aa(lp171
S'2015-07-02T13:36:41.815612'
p172
aI5
ag30
aI22
ag31
aa(lp173
S'2015-07-06T12:07:12.575028'
p174
aI2
aVwall sit
p175
aI41
aVsecond
p176
aa(lp177
S'2015-07-06T13:56:46.004085'
p178
aI8
aVburpees
p179
aI4
aVrep
p180
aa(lp181
S'2015-07-06T17:16:34.225508'
p182
aI6
aVsquats
p183
aI22
aVrep
p184
aa(lp185
S'2015-07-07T11:02:34.041129'
p186
aI6
ag38
aI19
ag39
aa(lp187
S'2015-07-07T11:31:41.196279'
p188
aI4
ag42
aI30
ag43
aa(lp189
S'2015-07-07T11:59:58.221675'
p190
aI1
ag46
aI60
ag47
aa(lp191
S'2015-07-07T12:28:29.280142'
p192
aI6
ag50
aI30
ag51
aa(lp193
S'2015-07-07T13:52:26.582405'
p194
aI1
ag58
aI55
ag59
aa(lp195
S'2015-07-07T16:03:26.601661'
p196
aI4
aVcalf raises
p197
aI20
aVrep
p198
aa(lp199
S'2015-07-08T11:54:00.769144'
p200
aI4
aVcalf raises
p201
aI23
aVrep
p202
aa(lp203
S'2015-07-09T15:45:50.864664'
p204
aI7
aVsitups
p205
aI23
aVrep
p206
aa(lp207
S'2015-07-13T16:24:22.144248'
p208
aI3
aVchair dips
p209
aI14
aVrep
p210
aa(lp211
S'2015-07-14T12:01:51.728158'
p212
aI7
ag82
aI16
ag83
aa(lp213
S'2015-07-14T14:57:34.578470'
p214
aI2
aVwall sit
p215
aI42
aVsecond
p216
aa(lp217
S'2015-07-15T13:48:10.914535'
p218
aI6
aVsquats
p219
aI18
aVrep
p220
aa(lp221
S'2015-07-15T17:05:26.906004'
p222
aI3
aVchair dips
p223
aI8
aVrep
p224
aa(lp225
S'2015-07-15T18:08:09.689408'
p226
aI6
ag94
aI23
ag95
aa(lp227
S'2015-07-15T19:53:30.829138'
p228
aI7
ag98
aI24
ag99
aa(lp229
S'2015-07-15T20:27:24.747004'
p230
aI6
aVsquats
p231
aI21
aVrep
p232
aa(lp233
S'2015-07-16T13:49:11.367961'
p234
aI0
aVpushups
p235
aI20
aVrep
p236
aa(lp237
S'2015-07-16T17:21:14.788228'
p238
aI2
aVwall sit
p239
aI40
aVsecond
p240
aa(lp241
S'2015-07-16T17:50:16.817799'
p242
aI4
ag106
aI28
ag107
aa(lp243
S'2015-07-21T11:59:19.248017'
p244
aI7
aVsitups
p245
aI17
aVrep
p246
aa(lp247
S'2015-07-22T11:44:14.126225'
p248
aI0
ag118
aI9
ag119
aa(lp249
S'2015-07-22T12:17:32.355174'
p250
aI6
ag122
aI21
ag123
aa(lp251
S'2015-07-22T13:55:30.511950'
p252
aI8
aVburpees
p253
aI2
aVrep
p254
aa(lp255
S'2015-07-30T14:07:42.144753'
p256
aI0
ag134
aI15
ag135
aa(lp257
S'2015-07-30T14:44:39.941701'
p258
aI8
aVburpees
p259
aI5
aVrep
p260
aa(lp261
S'2015-07-30T16:56:30.452853'
p262
aI6
ag142
aI29
ag143
aasg144
(dp263
I0
I56
sI1
I115
sI2
I123
sI3
I33
sI4
I146
sI5
I22
sI6
I183
sI7
I80
sI8
I11
ssg146
g147
sbsVU04S5DGGV
p264
(iUser
User
p265
(dp266
g4
Vsarahj
p267
sg6
(dp268
I0
I3
sI1
I6
sI2
I1
sI3
I2
sI4
I3
sI5
I1
sI6
I6
sI7
I4
sI8
I1
ssg8
(dp269
sg12
VSarah Johnson
p270
sg14
(lp271
(lp272
S'2015-06-30T16:05:07.979252'
p273
aI4
ag18
aI24
ag19
aa(lp274
S'2015-06-30T16:57:45.797002'
p275
aI7
aVsitups
p276
aI26
aVrep
p277
aa(lp278
S'2015-07-01T11:47:15.132590'
p279
aI3
ag22
aI10
ag23
aa(lp280
S'2015-07-01T15:24:32.100977'
p281
aI1
aVplanks
p282
aI59
aVsecond
p283
aa(lp284
S'2015-07-02T13:36:41.815619'
p285
aI5
ag30
aI22
ag31
aa(lp286
S'2015-07-06T09:56:26.796005'
p287
aI2
aVwall sit
p288
aI49
aVsecond
p289
aa(lp290
S'2015-07-06T12:48:11.249932'
p291
aI6
aVsquats
p292
aI29
aVrep
p293
aa(lp294
S'2015-07-06T15:03:15.227721'
p295
aI1
aVplanks
p296
aI40
aVsecond
p297
aa(lp298
S'2015-07-07T11:02:34.041135'
p299
aI6
ag38
aI19
ag39
aa(lp300
S'2015-07-07T11:31:41.196284'
p301
aI4
ag42
aI30
ag43
aa(lp302
S'2015-07-07T11:59:58.221680'
p303
aI1
ag46
aI60
ag47
aa(lp304
S'2015-07-07T12:28:29.280147'
p305
aI6
ag50
aI30
ag51
aa(lp306
S'2015-07-07T13:52:26.582411'
p307
aI1
ag58
aI55
ag59
aa(lp308
S'2015-07-07T14:24:49.383606'
p309
aI0
aVpushups
p310
aI8
aVrep
p311
aa(lp312
S'2015-07-09T13:12:58.838345'
p313
aI3
ag66
aI9
ag67
aa(lp314
S'2015-07-09T16:14:30.514015'
p315
aI1
ag70
aI43
ag71
aa(lp316
S'2015-07-14T12:01:51.728164'
p317
aI7
ag82
aI16
ag83
aa(lp318
S'2015-07-14T13:10:59.930530'
p319
aI8
aVburpees
p320
aI5
aVrep
p321
aa(lp322
S'2015-07-15T14:20:39.003697'
p323
aI7
aVsitups
p324
aI29
aVrep
p325
aa(lp326
S'2015-07-15T18:08:09.689413'
p327
aI6
ag94
aI23
ag95
aa(lp328
S'2015-07-15T19:53:30.829147'
p329
aI7
ag98
aI24
ag99
aa(lp330
S'2015-07-16T16:46:26.925549'
p331
aI1
ag102
aI42
ag103
aa(lp332
S'2015-07-16T17:50:16.817805'
p333
aI4
ag106
aI28
ag107
aa(lp334
S'2015-07-22T11:44:14.126231'
p335
aI0
ag118
aI9
ag119
aa(lp336
S'2015-07-22T12:17:32.355180'
p337
aI6
ag122
aI21
ag123
aa(lp338
S'2015-07-30T14:07:42.144762'
p339
aI0
ag134
aI15
ag135
aa(lp340
S'2015-07-30T16:56:30.452859'
p341
aI6
ag142
aI29
ag143
aasg144
(dp342
I0
I32
sI1
I299
sI2
I49
sI3
I19
sI4
I82
sI5
I22
sI6
I151
sI7
I95
sI8
I5
ssg146
g264
sbsVU04RNNJFU
p343
(iUser
User
p344
(dp345
g4
Vcerardi
p346
sg6
(dp347
I0
I3
sI1
I3
sI2
I1
sI3
I2
sI4
I3
sI5
I2
sI6
I6
sI7
I2
sI8
I4
ssg8
(dp348
sg12
VChris Erardi
p349
sg14
(lp350
(lp351
S'2015-06-29T15:58:13.372383'
p352
aI1
aVplanks
p353
aI59
aVsecond
p354
aa(lp355
S'2015-06-30T16:05:07.979257'
p356
aI4
ag18
aI24
ag19
aa(lp357
S'2015-07-02T13:36:41.815625'
p358
aI5
ag30
aI22
ag31
aa(lp359
S'2015-07-06T15:27:08.457045'
p360
aI5
aVjumping jacks
p361
aI22
aVrep
p362
aa(lp363
S'2015-07-07T11:02:34.041141'
p364
aI6
ag38
aI19
ag39
aa(lp365
S'2015-07-07T11:31:41.196289'
p366
aI4
ag42
aI30
ag43
aa(lp367
S'2015-07-07T11:59:58.221685'
p368
aI1
ag46
aI60
ag47
aa(lp369
S'2015-07-07T12:28:29.280152'
p370
aI6
ag50
aI30
ag51
aa(lp371
S'2015-07-07T13:52:26.582416'
p372
aI1
ag58
aI55
ag59
aa(lp373
S'2015-07-07T16:40:30.997458'
p374
aI0
ag62
aI17
ag63
aa(lp375
S'2015-07-09T14:47:48.974839'
p376
aI2
aVwall sit
p377
aI46
aVsecond
p378
aa(lp379
S'2015-07-13T16:24:22.144223'
p380
aI3
ag209
aI14
ag210
aa(lp381
S'2015-07-14T12:01:51.728171'
p382
aI7
ag82
aI16
ag83
aa(lp383
S'2015-07-14T15:32:00.326038'
p384
aI3
aVchair dips
p385
aI8
aVrep
p386
aa(lp387
S'2015-07-15T13:48:10.914519'
p388
aI6
ag219
aI18
ag220
aa(lp389
S'2015-07-15T16:01:45.140144'
p390
aI8
aVburpees
p391
aI2
aVrep
p392
aa(lp393
S'2015-07-15T18:08:09.689418'
p394
aI6
ag94
aI23
ag95
aa(lp395
S'2015-07-15T19:53:30.829152'
p396
aI7
ag98
aI24
ag99
aa(lp397
S'2015-07-16T14:37:57.219378'
p398
aI8
aVburpees
p399
aI4
aVrep
p400
aa(lp401
S'2015-07-16T17:50:16.817810'
p402
aI4
ag106
aI28
ag107
aa(lp403
S'2015-07-22T11:44:14.126236'
p404
aI0
ag118
aI9
ag119
aa(lp405
S'2015-07-22T12:17:32.355186'
p406
aI6
ag122
aI21
ag123
aa(lp407
S'2015-07-22T16:02:14.137178'
p408
aI8
aVburpees
p409
aI4
aVrep
p410
aa(lp411
S'2015-07-30T14:07:42.144768'
p412
aI0
ag134
aI15
ag135
aa(lp413
S'2015-07-30T15:46:46.993892'
p414
aI8
aVburpees
p415
aI5
aVrep
p416
aa(lp417
S'2015-07-30T16:56:30.452873'
p418
aI6
ag142
aI29
ag143
aasg144
(dp419
I0
I41
sI1
I174
sI2
I46
sI3
I22
sI4
I82
sI5
I44
sI6
I140
sI7
I40
sI8
I15
ssg146
g343
sbsVU07050J8J
p420
(iUser
User
p421
(dp422
g4
Vbwhite
p423
sg6
(dp424
I0
I4
sI1
I1
sI6
I2
sI8
I1
sI7
I1
ssg8
(dp425
sg12
VBen White
p426
sg14
(lp427
(lp428
S'2015-07-21T11:59:19.247991'
p429
aI7
ag245
aI17
ag246
aa(lp430
S'2015-07-21T14:40:49.190920'
p431
aI0
aVpushups
p432
aI11
aVrep
p433
aa(lp434
S'2015-07-22T11:44:14.126240'
p435
aI0
ag118
aI9
ag119
aa(lp436
S'2015-07-22T12:17:32.355190'
p437
aI6
ag122
aI21
ag123
aa(lp438
S'2015-07-22T13:18:59.091625'
p439
aI1
aVplanks
p440
aI43
aVsecond
p441
aa(lp442
S'2015-07-22T15:30:10.478109'
p443
aI8
ag126
aI1
ag127
aa(lp444
S'2015-07-30T10:37:42.574032'
p445
aI0
aVpushups
p446
aI18
aVrep
p447
aa(lp448
S'2015-07-30T14:07:42.144774'
p449
aI0
ag134
aI15
ag135
aa(lp450
S'2015-07-30T16:56:30.452879'
p451
aI6
ag142
aI29
ag143
aasg144
(dp452
I0
I53
sI1
I43
sI6
I50
sI8
I1
sI7
I17
ssg146
g420
sbsVU04SCBF8D
p453
(iUser
User
p454
(dp455
g4
Vvsai
p456
sg6
(dp457
I0
I4
sI1
I3
sI2
I1
sI3
I3
sI4
I9
sI5
I2
sI6
I8
sI7
I2
sI8
I2
ssg8
(dp458
sg12
VVishalsai Daswani
p459
sg14
(lp460
(lp461
S'2015-06-30T16:05:07.979262'
p462
aI4
ag18
aI24
ag19
aa(lp463
S'2015-07-01T14:22:41.645868'
p464
aI5
aVjumping jacks
p465
aI25
aVrep
p466
aa(lp467
S'2015-07-01T17:31:09.912756'
p468
aI2
aVwall sit
p469
aI48
aVsecond
p470
aa(lp471
S'2015-07-02T13:36:41.815630'
p472
aI5
ag30
aI22
ag31
aa(lp473
S'2015-07-06T12:26:25.132263'
p474
aI6
aVsquats
p475
aI28
aVrep
p476
aa(lp477
S'2015-07-06T14:19:40.622349'
p478
aI4
aVcalf raises
p479
aI24
aVrep
p480
aa(lp481
S'2015-07-07T11:02:34.041146'
p482
aI6
ag38
aI19
ag39
aa(lp483
S'2015-07-07T11:31:41.196293'
p484
aI4
ag42
aI30
ag43
aa(lp485
S'2015-07-07T11:59:58.221690'
p486
aI1
ag46
aI60
ag47
aa(lp487
S'2015-07-07T12:28:29.280156'
p488
aI6
ag50
aI30
ag51
aa(lp489
S'2015-07-07T13:52:26.582422'
p490
aI1
ag58
aI55
ag59
aa(lp491
S'2015-07-07T14:24:49.383643'
p492
aI0
ag310
aI8
ag311
aa(lp493
S'2015-07-07T17:12:11.001908'
p494
aI3
aVchair dips
p495
aI10
aVrep
p496
aa(lp497
S'2015-07-09T14:10:56.128027'
p498
aI4
aVcalf raises
p499
aI24
aVrep
p500
aa(lp501
S'2015-07-09T17:17:38.312296'
p502
aI3
aVchair dips
p503
aI14
aVrep
p504
aa(lp505
S'2015-07-13T14:42:54.403216'
p506
aI1
ag74
aI53
ag75
aa(lp507
S'2015-07-13T17:32:57.165290'
p508
aI8
ag78
aI3
ag79
aa(lp509
S'2015-07-14T12:01:51.728178'
p510
aI7
ag82
aI16
ag83
aa(lp511
S'2015-07-14T16:04:13.103043'
p512
aI4
aVcalf raises
p513
aI21
aVrep
p514
aa(lp515
S'2015-07-15T13:13:16.171876'
p516
aI4
aVcalf raises
p517
aI20
aVrep
p518
aa(lp519
S'2015-07-15T17:05:26.905992'
p520
aI3
ag223
aI8
ag224
aa(lp521
S'2015-07-15T18:08:09.689424'
p522
aI6
ag94
aI23
ag95
aa(lp523
S'2015-07-15T19:53:30.829157'
p524
aI7
ag98
aI24
ag99
aa(lp525
S'2015-07-15T20:27:24.746998'
p526
aI6
ag231
aI21
ag232
aa(lp527
S'2015-07-16T16:11:18.883556'
p528
aI6
aVsquats
p529
aI17
aVrep
p530
aa(lp531
S'2015-07-16T17:50:16.817814'
p532
aI4
ag106
aI28
ag107
aa(lp533
S'2015-07-21T15:15:22.012189'
p534
aI0
aVpushups
p535
aI16
aVrep
p536
aa(lp537
S'2015-07-22T11:44:14.126244'
p538
aI0
ag118
aI9
ag119
aa(lp539
S'2015-07-22T12:17:32.355195'
p540
aI6
ag122
aI21
ag123
aa(lp541
S'2015-07-22T14:31:08.978771'
p542
aI4
aVcalf raises
p543
aI27
aVrep
p544
aa(lp545
S'2015-07-22T17:12:06.716640'
p546
aI8
aVburpees
p547
aI2
aVrep
p548
aa(lp549
S'2015-07-30T14:07:42.144779'
p550
aI0
ag134
aI15
ag135
aa(lp551
S'2015-07-30T15:14:14.080996'
p552
aI4
ag138
aI28
ag139
aa(lp553
S'2015-07-30T16:56:30.452884'
p554
aI6
ag142
aI29
ag143
aasg144
(dp555
I0
I48
sI1
I168
sI2
I48
sI3
I32
sI4
I226
sI5
I47
sI6
I188
sI7
I40
sI8
I5
ssg146
g453
sbsVU04UA9XMZ
p556
(iUser
User
p557
(dp558
g4
Vhayg
p559
sg6
(dp560
I0
I5
sI1
I3
sI2
I2
sI3
I2
sI4
I5
sI5
I1
sI6
I5
sI7
I3
sI8
I4
ssg8
(dp561
S'2015-06-26 15:23:02.611587'
p562
(dp563
ssg12
VHayg Astourian
p564
sg14
(lp565
(lp566
S'2015-06-30T14:23:57.747807'
p567
aI1
aVplanks
p568
aI45
aVsecond
p569
aa(lp570
S'2015-06-30T16:05:07.979266'
p571
aI4
ag18
aI24
ag19
aa(lp572
S'2015-07-01T13:55:38.831474'
p573
aI2
aVwall sit
p574
aI46
aVsecond
p575
aa(lp576
S'2015-07-02T11:18:38.386342'
p577
aI4
aVcalf raises
p578
aI30
aVrep
p579
aa(lp580
S'2015-07-02T13:36:41.815634'
p581
aI5
ag30
aI22
ag31
aa(lp582
S'2015-07-07T11:02:34.041151'
p583
aI6
ag38
aI19
ag39
aa(lp584
S'2015-07-07T11:31:41.196298'
p585
aI4
ag42
aI30
ag43
aa(lp586
S'2015-07-07T11:59:58.221696'
p587
aI1
ag46
aI60
ag47
aa(lp588
S'2015-07-07T12:28:29.280160'
p589
aI6
ag50
aI30
ag51
aa(lp590
S'2015-07-07T13:52:26.582427'
p591
aI1
ag58
aI55
ag59
aa(lp592
S'2015-07-09T13:42:27.775589'
p593
aI0
aVpushups
p594
aI9
aVrep
p595
aa(lp596
S'2015-07-09T16:42:59.700030'
p597
aI0
aVpushups
p598
aI14
aVrep
p599
aa(lp600
S'2015-07-13T16:24:22.144241'
p601
aI3
ag209
aI14
ag210
aa(lp602
S'2015-07-14T12:01:51.728183'
p603
aI7
ag82
aI16
ag83
aa(lp604
S'2015-07-14T13:10:59.930544'
p605
aI8
ag320
aI5
ag321
aa(lp606
S'2015-07-15T17:05:26.905978'
p607
aI3
ag223
aI8
ag224
aa(lp608
S'2015-07-15T18:08:09.689429'
p609
aI6
ag94
aI23
ag95
aa(lp610
S'2015-07-15T19:53:30.829162'
p611
aI7
ag98
aI24
ag99
aa(lp612
S'2015-07-16T13:49:11.367947'
p613
aI0
ag235
aI20
ag236
aa(lp614
S'2015-07-16T17:21:14.788222'
p615
aI2
ag239
aI40
ag240
aa(lp616
S'2015-07-16T17:50:16.817820'
p617
aI4
ag106
aI28
ag107
aa(lp618
S'2015-07-21T11:59:19.248012'
p619
aI7
ag245
aI17
ag246
aa(lp620
S'2015-07-22T11:44:14.126249'
p621
aI0
ag118
aI9
ag119
aa(lp622
S'2015-07-22T12:17:32.355200'
p623
aI6
ag122
aI21
ag123
aa(lp624
S'2015-07-22T13:55:30.511945'
p625
aI8
ag253
aI2
ag254
aa(lp626
S'2015-07-22T17:12:06.716634'
p627
aI8
ag547
aI2
ag548
aa(lp628
S'2015-07-30T11:13:46.420240'
p629
aI8
ag130
aI3
ag131
aa(lp630
S'2015-07-30T14:07:42.144783'
p631
aI0
ag134
aI15
ag135
aa(lp632
S'2015-07-30T15:14:14.081010'
p633
aI4
ag138
aI28
ag139
aa(lp634
S'2015-07-30T16:56:30.452889'
p635
aI6
ag142
aI29
ag143
aasg144
(dp636
I0
I67
sI1
I160
sI2
I86
sI3
I22
sI4
I140
sI5
I22
sI6
I122
sI7
I57
sI8
I12
ssg146
g556
sbsVU04S8BR6R
p637
(iUser
User
p638
(dp639
g4
Vmikeg
p640
sg6
(dp641
I0
I4
sI1
I4
sI2
I6
sI3
I1
sI4
I6
sI5
I2
sI6
I6
sI7
I4
sI8
I1
ssg8
(dp642
S'2015-06-26 15:23:02.611599'
p643
(dp644
ssg12
VMike Griepentrog
p645
sg14
(lp646
(lp647
S'2015-06-30T13:20:30.585279'
p648
aI5
aVjumping jacks
p649
aI28
aVrep
p650
aa(lp651
S'2015-06-30T14:23:57.747792'
p652
aI1
ag568
aI45
ag569
aa(lp653
S'2015-06-30T16:05:07.979271'
p654
aI4
ag18
aI24
ag19
aa(lp655
S'2015-07-01T17:06:58.706018'
p656
aI3
aVchair dips
p657
aI17
aVrep
p658
aa(lp659
S'2015-07-02T10:56:49.502467'
p660
aI4
ag169
aI21
ag170
aa(lp661
S'2015-07-02T13:36:41.815639'
p662
aI5
ag30
aI22
ag31
aa(lp663
S'2015-07-06T09:56:26.796024'
p664
aI2
ag288
aI49
ag289
aa(lp665
S'2015-07-06T11:46:49.609577'
p666
aI6
aVsquats
p667
aI24
aVrep
p668
aa(lp669
S'2015-07-06T13:35:51.347628'
p670
aI7
ag34
aI17
ag35
aa(lp671
S'2015-07-07T11:02:34.041156'
p672
aI6
ag38
aI19
ag39
aa(lp673
S'2015-07-07T11:31:41.196343'
p674
aI4
ag42
aI30
ag43
aa(lp675
S'2015-07-07T11:59:58.221700'
p676
aI1
ag46
aI60
ag47
aa(lp677
S'2015-07-07T12:28:29.280166'
p678
aI6
ag50
aI30
ag51
aa(lp679
S'2015-07-07T13:52:26.582431'
p680
aI1
ag58
aI55
ag59
aa(lp681
S'2015-07-07T14:24:49.383637'
p682
aI0
ag310
aI8
ag311
aa(lp683
S'2015-07-09T16:14:30.514003'
p684
aI1
ag70
aI43
ag71
aa(lp685
S'2015-07-13T14:07:46.804077'
p686
aI8
aVburpees
p687
aI1
aVrep
p688
aa(lp689
S'2015-07-14T11:30:19.681819'
p690
aI2
aVwall sit
p691
aI49
aVsecond
p692
aa(lp693
S'2015-07-14T12:01:51.728187'
p694
aI7
ag82
aI16
ag83
aa(lp695
S'2015-07-14T16:04:13.103006'
p696
aI4
ag513
aI21
ag514
aa(lp697
S'2015-07-15T15:29:47.425488'
p698
aI2
ag90
aI47
ag91
aa(lp699
S'2015-07-15T18:08:09.689434'
p700
aI6
ag94
aI23
ag95
aa(lp701
S'2015-07-15T19:17:51.715213'
p702
aI2
aVwall sit
p703
aI50
aVsecond
p704
aa(lp705
S'2015-07-15T19:53:30.829167'
p706
aI7
ag98
aI24
ag99
aa(lp707
S'2015-07-16T15:07:15.182348'
p708
aI2
aVwall sit
p709
aI41
aVsecond
p710
aa(lp711
S'2015-07-16T17:50:16.817825'
p712
aI4
ag106
aI28
ag107
aa(lp713
S'2015-07-21T11:59:19.248005'
p714
aI7
ag245
aI17
ag246
aa(lp715
S'2015-07-21T15:15:22.012194'
p716
aI0
ag535
aI16
ag536
aa(lp717
S'2015-07-22T11:44:14.126253'
p718
aI0
ag118
aI9
ag119
aa(lp719
S'2015-07-22T12:17:32.355204'
p720
aI6
ag122
aI21
ag123
aa(lp721
S'2015-07-22T14:31:08.978796'
p722
aI4
ag543
aI27
ag544
aa(lp723
S'2015-07-30T13:33:24.011982'
p724
aI2
aVwall sit
p725
aI46
aVsecond
p726
aa(lp727
S'2015-07-30T14:07:42.144788'
p728
aI0
ag134
aI15
ag135
aa(lp729
S'2015-07-30T16:56:30.452893'
p730
aI6
ag142
aI29
ag143
aasg144
(dp731
I0
I48
sI1
I203
sI2
I282
sI3
I17
sI4
I151
sI5
I50
sI6
I146
sI7
I74
sI8
I1
ssg146
g637
sbsVU051RV1QW
p732
(iUser
User
p733
(dp734
g4
Vgokul
p735
sg6
(dp736
I0
I6
sI1
I3
sI2
I3
sI3
I4
sI4
I5
sI5
I1
sI6
I6
sI7
I2
sI8
I3
ssg8
(dp737
S'2015-06-26 15:23:02.611610'
p738
(dp739
ssg12
VGokul Ramesh
p740
sg14
(lp741
(lp742
S'2015-06-29T15:39:08.557266'
p743
aI8
aVburpees
p744
aI4
aVrep
p745
aa(lp746
S'2015-06-30T14:45:40.464423'
p747
aI3
aVchair dips
p748
aI20
aVrep
p749
aa(lp750
S'2015-06-30T16:05:07.979275'
p751
aI4
ag18
aI24
ag19
aa(lp752
S'2015-07-01T16:05:23.804879'
p753
aI0
aVpushups
p754
aI15
aVrep
p755
aa(lp756
S'2015-07-02T13:36:41.815644'
p757
aI5
ag30
aI22
ag31
aa(lp758
S'2015-07-06T14:19:40.622339'
p759
aI4
ag479
aI24
ag480
aa(lp760
S'2015-07-07T11:02:34.041161'
p761
aI6
ag38
aI19
ag39
aa(lp762
S'2015-07-07T11:31:41.196359'
p763
aI4
ag42
aI30
ag43
aa(lp764
S'2015-07-07T11:59:58.221705'
p765
aI1
ag46
aI60
ag47
aa(lp766
S'2015-07-07T12:28:29.280170'
p767
aI6
ag50
aI30
ag51
aa(lp768
S'2015-07-07T13:17:43.541946'
p769
aI2
ag54
aI45
ag55
aa(lp770
S'2015-07-07T13:52:26.582437'
p771
aI1
ag58
aI55
ag59
aa(lp772
S'2015-07-09T14:10:56.128003'
p773
aI4
ag499
aI24
ag500
aa(lp774
S'2015-07-09T17:17:38.312280'
p775
aI3
ag503
aI14
ag504
aa(lp776
S'2015-07-13T14:42:54.403201'
p777
aI1
ag74
aI53
ag75
aa(lp778
S'2015-07-14T11:30:19.681813'
p779
aI2
ag691
aI49
ag692
aa(lp780
S'2015-07-14T12:01:51.728192'
p781
aI7
ag82
aI16
ag83
aa(lp782
S'2015-07-14T15:32:00.326050'
p783
aI3
ag385
aI8
ag386
aa(lp784
S'2015-07-15T14:55:17.297065'
p785
aI0
aVpushups
p786
aI13
aVrep
p787
aa(lp788
S'2015-07-15T18:08:09.689438'
p789
aI6
ag94
aI23
ag95
aa(lp790
S'2015-07-15T18:42:43.886786'
p791
aI3
aVchair dips
p792
aI20
aVrep
p793
aa(lp794
S'2015-07-15T19:53:30.829171'
p795
aI7
ag98
aI24
ag99
aa(lp796
S'2015-07-16T16:11:18.883569'
p797
aI6
ag529
aI17
ag530
aa(lp798
S'2015-07-16T17:50:16.817830'
p799
aI4
ag106
aI28
ag107
aa(lp800
S'2015-07-21T14:40:49.190936'
p801
aI0
ag432
aI11
ag433
aa(lp802
S'2015-07-22T11:44:14.126257'
p803
aI0
ag118
aI9
ag119
aa(lp804
S'2015-07-22T12:17:32.355209'
p805
aI6
ag122
aI21
ag123
aa(lp806
S'2015-07-22T13:55:30.511921'
p807
aI8
ag253
aI2
ag254
aa(lp808
S'2015-07-22T17:12:06.716628'
p809
aI8
ag547
aI2
ag548
aa(lp810
S'2015-07-30T10:37:42.574026'
p811
aI0
ag446
aI18
ag447
aa(lp812
S'2015-07-30T13:33:24.011909'
p813
aI2
ag725
aI46
ag726
aa(lp814
S'2015-07-30T14:07:42.144793'
p815
aI0
ag134
aI15
ag135
aa(lp816
S'2015-07-30T16:56:30.452897'
p817
aI6
ag142
aI29
ag143
aasg144
(dp818
I0
I81
sI1
I168
sI2
I140
sI3
I62
sI4
I130
sI5
I22
sI6
I139
sI7
I40
sI8
I8
ssg146
g732
sbsVU051S60NA
p819
(iUser
User
p820
(dp821
g4
Vpeterxia
p822
sg6
(dp823
I0
I3
sI1
I2
sI2
I2
sI3
I2
sI4
I7
sI5
I1
sI6
I8
sI7
I4
sI8
I1
ssg8
(dp824
sg12
VPeter Xia
p825
sg14
(lp826
(lp827
S'2015-06-30T16:05:07.979280'
p828
aI4
ag18
aI24
ag19
aa(lp829
S'2015-07-01T11:47:15.132584'
p830
aI3
ag22
aI10
ag23
aa(lp831
S'2015-07-01T16:24:46.697854'
p832
aI4
aVcalf raises
p833
aI29
aVrep
p834
aa(lp835
S'2015-07-02T13:36:41.815648'
p836
aI5
ag30
aI22
ag31
aa(lp837
S'2015-07-06T11:46:49.609588'
p838
aI6
ag667
aI24
ag668
aa(lp839
S'2015-07-06T13:56:46.004053'
p840
aI8
ag179
aI4
ag180
aa(lp841
S'2015-07-07T11:02:34.041166'
p842
aI6
ag38
aI19
ag39
aa(lp843
S'2015-07-07T11:31:41.196365'
p844
aI4
ag42
aI30
ag43
aa(lp845
S'2015-07-07T11:59:58.221711'
p846
aI1
ag46
aI60
ag47
aa(lp847
S'2015-07-07T12:28:29.280174'
p848
aI6
ag50
aI30
ag51
aa(lp849
S'2015-07-07T13:17:43.541972'
p850
aI2
ag54
aI45
ag55
aa(lp851
S'2015-07-07T13:52:26.582441'
p852
aI1
ag58
aI55
ag59
aa(lp853
S'2015-07-07T16:40:30.997441'
p854
aI0
ag62
aI17
ag63
aa(lp855
S'2015-07-09T14:10:56.128040'
p856
aI4
ag499
aI24
ag500
aa(lp857
S'2015-07-13T15:48:07.752690'
p858
aI2
aVwall sit
p859
aI42
aVsecond
p860
aa(lp861
S'2015-07-14T12:01:51.728197'
p862
aI7
ag82
aI16
ag83
aa(lp863
S'2015-07-14T12:35:54.575360'
p864
aI7
aVsitups
p865
aI28
aVrep
p866
aa(lp867
S'2015-07-14T16:39:22.210440'
p868
aI6
aVsquats
p869
aI17
aVrep
p870
aa(lp871
S'2015-07-15T13:13:16.171870'
p872
aI4
ag517
aI20
ag518
aa(lp873
S'2015-07-15T16:30:35.952746'
p874
aI3
aVchair dips
p875
aI15
aVrep
p876
aa(lp877
S'2015-07-15T18:08:09.689443'
p878
aI6
ag94
aI23
ag95
aa(lp879
S'2015-07-15T19:53:30.829176'
p880
aI7
ag98
aI24
ag99
aa(lp881
S'2015-07-16T16:11:18.883563'
p882
aI6
ag529
aI17
ag530
aa(lp883
S'2015-07-16T17:50:16.817835'
p884
aI4
ag106
aI28
ag107
aa(lp885
S'2015-07-21T14:08:39.110097'
p886
aI7
aVsitups
p887
aI16
aVrep
p888
aa(lp889
S'2015-07-22T11:44:14.126272'
p890
aI0
ag118
aI9
ag119
aa(lp891
S'2015-07-22T12:17:32.355216'
p892
aI6
ag122
aI21
ag123
aa(lp893
S'2015-07-30T14:07:42.144797'
p894
aI0
ag134
aI15
ag135
aa(lp895
S'2015-07-30T15:14:14.081022'
p896
aI4
ag138
aI28
ag139
aa(lp897
S'2015-07-30T16:56:30.452904'
p898
aI6
ag142
aI29
ag143
aasg144
(dp899
I0
I41
sI1
I115
sI2
I87
sI3
I25
sI4
I183
sI5
I22
sI6
I180
sI7
I84
sI8
I4
ssg146
g819
sbsVU04RLRY3U
p900
(iUser
User
p901
(dp902
g4
Vjiann
p903
sg6
(dp904
I0
I4
sI1
I4
sI2
I3
sI3
I1
sI4
I7
sI5
I2
sI6
I6
sI7
I3
sI8
I3
ssg8
(dp905
S'2015-06-26 15:23:02.611622'
p906
(dp907
ssg12
VJiann Mok
p908
sg14
(lp909
(lp910
S'2015-06-29T15:20:26.335147'
p911
aI4
aVcalf raises
p912
aI29
aVrep
p913
aa(lp914
S'2015-06-30T15:13:19.580834'
p915
aI0
aVpushups
p916
aI10
aVrep
p917
aa(lp918
S'2015-06-30T16:05:07.979284'
p919
aI4
ag18
aI24
ag19
aa(lp920
S'2015-07-01T11:31:29.015392'
p921
aI1
aVplanks
p922
aI42
aVsecond
p923
aa(lp924
S'2015-07-01T17:06:58.706040'
p925
aI3
ag657
aI17
ag658
aa(lp926
S'2015-07-02T11:18:38.386336'
p927
aI4
ag578
aI30
ag579
aa(lp928
S'2015-07-02T13:36:41.815652'
p929
aI5
ag30
aI22
ag31
aa(lp930
S'2015-07-06T12:48:11.249920'
p931
aI6
ag292
aI29
ag293
aa(lp932
S'2015-07-06T14:40:18.622376'
p933
aI2
aVwall sit
p934
aI41
aVsecond
p935
aa(lp936
S'2015-07-07T11:02:34.041171'
p937
aI6
ag38
aI19
ag39
aa(lp938
S'2015-07-07T11:31:41.196370'
p939
aI4
ag42
aI30
ag43
aa(lp940
S'2015-07-07T11:59:58.221716'
p941
aI1
ag46
aI60
ag47
aa(lp942
S'2015-07-07T12:28:29.280179'
p943
aI6
ag50
aI30
ag51
aa(lp944
S'2015-07-07T13:52:26.582445'
p945
aI1
ag58
aI55
ag59
aa(lp946
S'2015-07-07T16:03:26.601667'
p947
aI4
ag197
aI20
ag198
aa(lp948
S'2015-07-09T15:45:50.864650'
p949
aI7
ag205
aI23
ag206
aa(lp950
S'2015-07-13T14:07:46.804110'
p951
aI8
ag687
aI1
ag688
aa(lp952
S'2015-07-14T12:01:51.728202'
p953
aI7
ag82
aI16
ag83
aa(lp954
S'2015-07-14T13:45:17.213177'
p955
aI4
ag86
aI29
ag87
aa(lp956
S'2015-07-15T14:55:17.297058'
p957
aI0
ag786
aI13
ag787
aa(lp958
S'2015-07-15T18:08:09.689447'
p959
aI6
ag94
aI23
ag95
aa(lp960
S'2015-07-15T19:17:51.715196'
p961
aI2
ag703
aI50
ag704
aa(lp962
S'2015-07-15T19:53:30.829181'
p963
aI7
ag98
aI24
ag99
aa(lp964
S'2015-07-16T14:37:57.219367'
p965
aI8
ag399
aI4
ag400
aa(lp966
S'2015-07-16T17:50:16.817840'
p967
aI4
ag106
aI28
ag107
aa(lp968
S'2015-07-21T13:02:42.935195'
p969
aI5
aVjumping jacks
p970
aI22
aVrep
p971
aa(lp972
S'2015-07-22T11:10:28.009218'
p973
aI1
ag114
aI56
ag115
aa(lp974
S'2015-07-22T11:44:14.126276'
p975
aI0
ag118
aI9
ag119
aa(lp976
S'2015-07-22T12:17:32.355221'
p977
aI6
ag122
aI21
ag123
aa(lp978
S'2015-07-22T15:00:32.375022'
p979
aI2
aVwall sit
p980
aI44
aVsecond
p981
aa(lp982
S'2015-07-30T14:07:42.144802'
p983
aI0
ag134
aI15
ag135
aa(lp984
S'2015-07-30T14:44:39.941672'
p985
aI8
ag259
aI5
ag260
aa(lp986
S'2015-07-30T16:56:30.452908'
p987
aI6
ag142
aI29
ag143
aasg144
(dp988
I0
I47
sI1
I213
sI2
I135
sI3
I17
sI4
I190
sI5
I44
sI6
I151
sI7
I63
sI8
I10
ssg146
g900
sbsVU04RMF3L0
p989
(iUser
User
p990
(dp991
g4
Vannamerk
p992
sg6
(dp993
I0
I3
sI1
I4
sI2
I5
sI3
I1
sI4
I4
sI5
I3
sI6
I6
sI7
I3
sI8
I1
ssg8
(dp994
S'2015-06-26 15:23:02.611633'
p995
(dp996
ssg12
VAnna Merkoulovitch
p997
sg14
(lp998
(lp999
S'2015-06-30T16:05:07.979289'
p1000
aI4
ag18
aI24
ag19
aa(lp1001
S'2015-07-02T13:36:41.815657'
p1002
aI5
ag30
aI22
ag31
aa(lp1003
S'2015-07-06T09:56:26.796018'
p1004
aI2
ag288
aI49
ag289
aa(lp1005
S'2015-07-06T13:35:51.347596'
p1006
aI7
ag34
aI17
ag35
aa(lp1007
S'2015-07-06T15:03:15.227689'
p1008
aI1
ag296
aI40
ag297
aa(lp1009
S'2015-07-06T16:46:32.522142'
p1010
aI0
aVpushups
p1011
aI19
aVrep
p1012
aa(lp1013
S'2015-07-07T11:02:34.041176'
p1014
aI6
ag38
aI19
ag39
aa(lp1015
S'2015-07-07T11:31:41.196375'
p1016
aI4
ag42
aI30
ag43
aa(lp1017
S'2015-07-07T11:59:58.221720'
p1018
aI1
ag46
aI60
ag47
aa(lp1019
S'2015-07-07T12:28:29.280183'
p1020
aI6
ag50
aI30
ag51
aa(lp1021
S'2015-07-07T13:52:26.582450'
p1022
aI1
ag58
aI55
ag59
aa(lp1023
S'2015-07-07T15:33:50.260778'
p1024
aI3
aVchair dips
p1025
aI18
aVrep
p1026
aa(lp1027
S'2015-07-09T14:47:48.974853'
p1028
aI2
ag377
aI46
ag378
aa(lp1029
S'2015-07-13T14:42:54.403223'
p1030
aI1
ag74
aI53
ag75
aa(lp1031
S'2015-07-13T17:32:57.165296'
p1032
aI8
ag78
aI3
ag79
aa(lp1033
S'2015-07-14T12:01:51.728207'
p1034
aI7
ag82
aI16
ag83
aa(lp1035
S'2015-07-14T16:04:13.103022'
p1036
aI4
ag513
aI21
ag514
aa(lp1037
S'2015-07-15T13:48:10.914572'
p1038
aI6
ag219
aI18
ag220
aa(lp1039
S'2015-07-15T17:40:08.629963'
p1040
aI2
aVwall sit
p1041
aI49
aVsecond
p1042
aa(lp1043
S'2015-07-15T18:08:09.689451'
p1044
aI6
ag94
aI23
ag95
aa(lp1045
S'2015-07-15T19:53:30.829186'
p1046
aI7
ag98
aI24
ag99
aa(lp1047
S'2015-07-16T15:36:21.471522'
p1048
aI5
aVjumping jacks
p1049
aI24
aVrep
p1050
aa(lp1051
S'2015-07-16T17:50:16.817844'
p1052
aI4
ag106
aI28
ag107
aa(lp1053
S'2015-07-21T13:33:14.946601'
p1054
aI5
aVjumping jacks
p1055
aI26
aVrep
p1056
aa(lp1057
S'2015-07-22T11:44:14.126291'
p1058
aI0
ag118
aI9
ag119
aa(lp1059
S'2015-07-22T12:17:32.355226'
p1060
aI6
ag122
aI21
ag123
aa(lp1061
S'2015-07-22T15:00:32.375011'
p1062
aI2
ag980
aI44
ag981
aa(lp1063
S'2015-07-30T12:22:16.422958'
p1064
aI2
aVwall sit
p1065
aI44
aVsecond
p1066
aa(lp1067
S'2015-07-30T14:07:42.144806'
p1068
aI0
ag134
aI15
ag135
aa(lp1069
S'2015-07-30T16:56:30.452940'
p1070
aI6
ag142
aI29
ag143
aasg144
(dp1071
I0
I43
sI1
I208
sI2
I232
sI3
I18
sI4
I103
sI5
I72
sI6
I140
sI7
I57
sI8
I3
ssg146
g989
sbsVU04S8D8G5
p1072
(iUser
User
p1073
(dp1074
g4
Vyouny
p1075
sg6
(dp1076
I0
I6
sI1
I4
sI2
I1
sI3
I2
sI4
I7
sI5
I5
sI6
I8
sI7
I2
sI8
I1
ssg8
(dp1077
S'2015-06-26 15:23:02.611646'
p1078
(dp1079
sS'2015-06-26 13:58:08.313473'
p1080
(dp1081
sS'2015-06-26 13:55:59.492799'
p1082
(dp1083
I0
I45
sssg12
VYouny Kuang
p1084
sg14
(lp1085
(lp1086
S'2015-06-26T13:55:15.472719'
p1087
aI0
aVpushups
p1088
aI15
aVrep
p1089
aa(lp1090
S'2015-06-26T13:55:15.481072'
p1091
aI0
ag1088
aI15
ag1089
aa(lp1092
S'2015-06-26T13:55:15.481208'
p1093
aI0
ag1088
aI15
ag1089
aa(lp1094
S'2015-06-30T16:05:07.979293'
p1095
aI4
ag18
aI24
ag19
aa(lp1096
S'2015-06-30T16:30:10.015197'
p1097
aI3
aVchair dips
p1098
aI17
aVrep
p1099
aa(lp1100
S'2015-07-01T10:45:28.521779'
p1101
aI2
aVwall sit
p1102
aI46
aVsecond
p1103
aa(lp1104
S'2015-07-01T16:05:23.804885'
p1105
aI0
ag754
aI15
ag755
aa(lp1106
S'2015-07-02T11:18:38.386322'
p1107
aI4
ag578
aI30
ag579
aa(lp1108
S'2015-07-02T13:36:41.815661'
p1109
aI5
ag30
aI22
ag31
aa(lp1110
S'2015-07-06T11:46:49.609556'
p1111
aI6
ag667
aI24
ag668
aa(lp1112
S'2015-07-06T13:14:43.773342'
p1113
aI1
aVplanks
p1114
aI47
aVsecond
p1115
aa(lp1116
S'2015-07-06T15:27:08.457039'
p1117
aI5
ag361
aI22
ag362
aa(lp1118
S'2015-07-07T11:02:34.041181'
p1119
aI6
ag38
aI19
ag39
aa(lp1120
S'2015-07-07T11:31:41.196379'
p1121
aI4
ag42
aI30
ag43
aa(lp1122
S'2015-07-07T11:59:58.221725'
p1123
aI1
ag46
aI60
ag47
aa(lp1124
S'2015-07-07T12:28:29.280187'
p1125
aI6
ag50
aI30
ag51
aa(lp1126
S'2015-07-07T13:52:26.582454'
p1127
aI1
ag58
aI55
ag59
aa(lp1128
S'2015-07-07T14:58:07.738651'
p1129
aI4
aVcalf raises
p1130
aI22
aVrep
p1131
aa(lp1132
S'2015-07-09T14:10:56.128020'
p1133
aI4
ag499
aI24
ag500
aa(lp1134
S'2015-07-09T17:17:38.312286'
p1135
aI3
ag503
aI14
ag504
aa(lp1136
S'2015-07-13T10:29:32.910955'
p1137
aI5
aVjumping jacks
p1138
aI26
aVrep
p1139
aa(lp1140
S'2015-07-13T15:18:53.333345'
p1141
aI0
aVpushups
p1142
aI8
aVrep
p1143
aa(lp1144
S'2015-07-14T12:01:51.728212'
p1145
aI7
ag82
aI16
ag83
aa(lp1146
S'2015-07-14T14:20:39.401225'
p1147
aI4
aVcalf raises
p1148
aI25
aVrep
p1149
aa(lp1150
S'2015-07-15T16:01:45.140119'
p1151
aI8
ag391
aI2
ag392
aa(lp1152
S'2015-07-15T18:08:09.689456'
p1153
aI6
ag94
aI23
ag95
aa(lp1154
S'2015-07-15T19:53:30.829190'
p1155
aI7
ag98
aI24
ag99
aa(lp1156
S'2015-07-15T20:27:24.746992'
p1157
aI6
ag231
aI21
ag232
aa(lp1158
S'2015-07-16T13:49:11.367978'
p1159
aI0
ag235
aI20
ag236
aa(lp1160
S'2015-07-16T17:50:16.817850'
p1161
aI4
ag106
aI28
ag107
aa(lp1162
S'2015-07-21T13:33:14.946608'
p1163
aI5
ag1055
aI26
ag1056
aa(lp1164
S'2015-07-22T11:44:14.126295'
p1165
aI0
ag118
aI9
ag119
aa(lp1166
S'2015-07-22T12:17:32.355232'
p1167
aI6
ag122
aI21
ag123
aa(lp1168
S'2015-07-22T13:18:59.091619'
p1169
aI1
ag440
aI43
ag441
aa(lp1170
S'2015-07-22T16:35:52.437537'
p1171
aI5
aVjumping jacks
p1172
aI23
aVrep
p1173
aa(lp1174
S'2015-07-30T10:37:42.574044'
p1175
aI0
ag446
aI18
ag447
aa(lp1176
S'2015-07-30T12:58:38.676506'
p1177
aI6
aVsquats
p1178
aI23
aVrep
p1179
aa(lp1180
S'2015-07-30T14:07:42.144811'
p1181
aI0
ag134
aI15
ag135
aa(lp1182
S'2015-07-30T16:56:30.452958'
p1183
aI6
ag142
aI29
ag143
aasg144
(dp1184
I0
I85
sI1
I205
sI2
I46
sI3
I31
sI4
I183
sI5
I119
sI6
I190
sI7
I40
sI8
I2
ssg146
g1072
sbsVU052DMVDR
p1185
(iUser
User
p1186
(dp1187
g4
Vclarat
p1188
sg6
(dp1189
I0
I3
sI1
I3
sI2
I4
sI3
I3
sI4
I5
sI5
I3
sI6
I7
sI7
I4
sI8
I2
ssg8
(dp1190
S'2015-06-26 15:23:02.611658'
p1191
(dp1192
I5
I28
sssg12
VClara Thomas
p1193
sg14
(lp1194
(lp1195
S'2015-06-26T15:13:24.986773'
p1196
aI5
aVjumping jacks
p1197
aI28
aVrep
p1198
aa(lp1199
S'2015-06-29T15:58:13.380592'
p1200
aI1
ag353
aI59
ag354
aa(lp1201
S'2015-06-30T16:05:07.979298'
p1202
aI4
ag18
aI24
ag19
aa(lp1203
S'2015-06-30T16:30:10.015190'
p1204
aI3
ag1098
aI17
ag1099
aa(lp1205
S'2015-07-01T16:24:46.697840'
p1206
aI4
ag833
aI29
ag834
aa(lp1207
S'2015-07-02T13:36:41.815666'
p1208
aI5
ag30
aI22
ag31
aa(lp1209
S'2015-07-06T09:56:26.795991'
p1210
aI2
ag288
aI49
ag289
aa(lp1211
S'2015-07-06T12:26:25.132293'
p1212
aI6
ag475
aI28
ag476
aa(lp1213
S'2015-07-07T11:02:34.041185'
p1214
aI6
ag38
aI19
ag39
aa(lp1215
S'2015-07-07T11:31:41.196384'
p1216
aI4
ag42
aI30
ag43
aa(lp1217
S'2015-07-07T11:59:58.221730'
p1218
aI1
ag46
aI60
ag47
aa(lp1219
S'2015-07-07T12:28:29.280191'
p1220
aI6
ag50
aI30
ag51
aa(lp1221
S'2015-07-07T13:52:26.582459'
p1222
aI1
ag58
aI55
ag59
aa(lp1223
S'2015-07-07T14:24:49.383631'
p1224
aI0
ag310
aI8
ag311
aa(lp1225
S'2015-07-08T11:54:00.769301'
p1226
aI4
ag201
aI23
ag202
aa(lp1227
S'2015-07-09T14:47:48.974870'
p1228
aI2
ag377
aI46
ag378
aa(lp1229
S'2015-07-13T12:54:27.871111'
p1230
aI7
aVsitups
p1231
aI19
aVrep
p1232
aa(lp1233
S'2015-07-13T16:24:22.144262'
p1234
aI3
ag209
aI14
ag210
aa(lp1235
S'2015-07-14T12:01:51.728216'
p1236
aI7
ag82
aI16
ag83
aa(lp1237
S'2015-07-14T13:10:59.930562'
p1238
aI8
ag320
aI5
ag321
aa(lp1239
S'2015-07-15T15:29:47.425467'
p1240
aI2
ag90
aI47
ag91
aa(lp1241
S'2015-07-15T18:08:09.689460'
p1242
aI6
ag94
aI23
ag95
aa(lp1243
S'2015-07-15T18:42:43.886792'
p1244
aI3
ag792
aI20
ag793
aa(lp1245
S'2015-07-15T19:53:30.829195'
p1246
aI7
ag98
aI24
ag99
aa(lp1247
S'2015-07-16T17:21:14.788202'
p1248
aI2
ag239
aI40
ag240
aa(lp1249
S'2015-07-16T17:50:16.817854'
p1250
aI4
ag106
aI28
ag107
aa(lp1251
S'2015-07-21T14:08:39.110083'
p1252
aI7
ag887
aI16
ag888
aa(lp1253
S'2015-07-22T11:44:14.126299'
p1254
aI0
ag118
aI9
ag119
aa(lp1255
S'2015-07-22T12:17:32.355237'
p1256
aI6
ag122
aI21
ag123
aa(lp1257
S'2015-07-22T13:55:30.511933'
p1258
aI8
ag253
aI2
ag254
aa(lp1259
S'2015-07-22T16:35:52.437550'
p1260
aI5
ag1172
aI23
ag1173
aa(lp1261
S'2015-07-30T11:46:27.973135'
p1262
aI5
aVjumping jacks
p1263
aI24
aVrep
p1264
aa(lp1265
S'2015-07-30T14:07:42.144816'
p1266
aI0
ag134
aI15
ag135
aa(lp1267
S'2015-07-30T16:22:21.395639'
p1268
aI6
aVsquats
p1269
aI25
aVrep
p1270
aa(lp1271
S'2015-07-30T16:56:30.452963'
p1272
aI6
ag142
aI29
ag143
aasg144
(dp1273
I0
I32
sI1
I174
sI2
I182
sI3
I51
sI4
I134
sI5
I69
sI6
I175
sI7
I75
sI8
I7
ssg146
g1185
sbsVU04S8CP6K
p1274
(iUser
User
p1275
(dp1276
g4
Vrhett
p1277
sg6
(dp1278
I0
I6
sI1
I4
sI2
I4
sI3
I2
sI4
I4
sI5
I1
sI6
I7
sI7
I3
sI8
I2
ssg8
(dp1279
S'2015-06-26 15:23:02.611669'
p1280
(dp1281
I5
I23
sssg12
VRhett Aultman
p1282
sg14
(lp1283
(lp1284
S'2015-06-26T14:44:24.500401'
p1285
aI5
aVjumping jacks
p1286
aI23
aVrep
p1287
aa(lp1288
S'2015-06-30T16:05:07.979302'
p1289
aI4
ag18
aI24
ag19
aa(lp1290
S'2015-06-30T16:57:45.797023'
p1291
aI7
ag276
aI26
ag277
aa(lp1292
S'2015-07-01T15:24:32.100983'
p1293
aI1
ag282
aI59
ag283
aa(lp1294
S'2015-07-02T13:36:41.815670'
p1295
aI5
ag30
aI22
ag31
aa(lp1296
S'2015-07-06T12:26:25.132281'
p1297
aI6
ag475
aI28
ag476
aa(lp1298
S'2015-07-06T14:40:18.622363'
p1299
aI2
ag934
aI41
ag935
aa(lp1300
S'2015-07-07T11:02:34.041196'
p1301
aI6
ag38
aI19
ag39
aa(lp1302
S'2015-07-07T11:31:41.196393'
p1303
aI4
ag42
aI30
ag43
aa(lp1304
S'2015-07-07T11:59:58.221738'
p1305
aI1
ag46
aI60
ag47
aa(lp1306
S'2015-07-07T12:28:29.280199'
p1307
aI6
ag50
aI30
ag51
aa(lp1308
S'2015-07-07T13:17:43.541977'
p1309
aI2
ag54
aI45
ag55
aa(lp1310
S'2015-07-07T13:52:26.582464'
p1311
aI1
ag58
aI55
ag59
aa(lp1312
S'2015-07-07T17:12:11.001896'
p1313
aI3
ag495
aI10
ag496
aa(lp1314
S'2015-07-09T13:12:58.838325'
p1315
aI3
ag66
aI9
ag67
aa(lp1316
S'2015-07-09T16:14:30.514009'
p1317
aI1
ag70
aI43
ag71
aa(lp1318
S'2015-07-13T15:18:53.333363'
p1319
aI0
ag1142
aI8
ag1143
aa(lp1320
S'2015-07-14T12:01:51.728221'
p1321
aI7
ag82
aI16
ag83
aa(lp1322
S'2015-07-14T16:04:13.103036'
p1323
aI4
ag513
aI21
ag514
aa(lp1324
S'2015-07-15T14:55:17.297076'
p1325
aI0
ag786
aI13
ag787
aa(lp1326
S'2015-07-15T18:08:09.689465'
p1327
aI6
ag94
aI23
ag95
aa(lp1328
S'2015-07-15T19:53:30.829200'
p1329
aI7
ag98
aI24
ag99
aa(lp1330
S'2015-07-16T13:49:11.367967'
p1331
aI0
ag235
aI20
ag236
aa(lp1332
S'2015-07-16T17:21:14.788234'
p1333
aI2
ag239
aI40
ag240
aa(lp1334
S'2015-07-16T17:50:16.817859'
p1335
aI4
ag106
aI28
ag107
aa(lp1336
S'2015-07-21T11:27:53.900418'
p1337
aI6
aVsquats
p1338
aI25
aVrep
p1339
aa(lp1340
S'2015-07-21T14:40:49.190949'
p1341
aI0
ag432
aI11
ag433
aa(lp1342
S'2015-07-22T11:44:14.126304'
p1343
aI0
ag118
aI9
ag119
aa(lp1344
S'2015-07-22T12:17:32.355241'
p1345
aI6
ag122
aI21
ag123
aa(lp1346
S'2015-07-22T16:02:14.137148'
p1347
aI8
ag409
aI4
ag410
aa(lp1348
S'2015-07-30T12:22:16.422985'
p1349
aI2
ag1065
aI44
ag1066
aa(lp1350
S'2015-07-30T14:07:42.144821'
p1351
aI0
ag134
aI15
ag135
aa(lp1352
S'2015-07-30T15:46:46.993885'
p1353
aI8
ag415
aI5
ag416
aa(lp1354
S'2015-07-30T16:56:30.452967'
p1355
aI6
ag142
aI29
ag143
aasg144
(dp1356
I0
I76
sI1
I217
sI2
I170
sI3
I19
sI4
I103
sI5
I22
sI6
I175
sI7
I66
sI8
I9
ssg146
g1274
sbsVU052DJHJB
p1357
(iUser
User
p1358
(dp1359
g4
Vericn
p1360
sg6
(dp1361
I0
I3
sI1
I3
sI2
I3
sI3
I1
sI4
I3
sI5
I2
sI6
I6
sI7
I3
sI8
I2
ssg8
(dp1362
sg12
VEric Nguyen
p1363
sg14
(lp1364
(lp1365
S'2015-07-06T13:14:43.773336'
p1366
aI1
ag1114
aI47
ag1115
aa(lp1367
S'2015-07-06T15:27:08.457019'
p1368
aI5
ag361
aI22
ag362
aa(lp1369
S'2015-07-07T11:02:34.041200'
p1370
aI6
ag38
aI19
ag39
aa(lp1371
S'2015-07-07T11:31:41.196398'
p1372
aI4
ag42
aI30
ag43
aa(lp1373
S'2015-07-07T11:59:58.221742'
p1374
aI1
ag46
aI60
ag47
aa(lp1375
S'2015-07-07T12:28:29.280203'
p1376
aI6
ag50
aI30
ag51
aa(lp1377
S'2015-07-07T13:52:26.582468'
p1378
aI1
ag58
aI55
ag59
aa(lp1379
S'2015-07-07T15:33:50.260786'
p1380
aI3
ag1025
aI18
ag1026
aa(lp1381
S'2015-07-09T16:42:59.700011'
p1382
aI0
ag598
aI14
ag599
aa(lp1383
S'2015-07-13T10:29:32.910968'
p1384
aI5
ag1138
aI26
ag1139
aa(lp1385
S'2015-07-13T15:48:07.752658'
p1386
aI2
ag859
aI42
ag860
aa(lp1387
S'2015-07-14T10:55:58.387281'
p1388
aI8
aVburpees
p1389
aI2
aVrep
p1390
aa(lp1391
S'2015-07-14T12:01:51.728226'
p1392
aI7
ag82
aI16
ag83
aa(lp1393
S'2015-07-14T14:20:39.401246'
p1394
aI4
ag1148
aI25
ag1149
aa(lp1395
S'2015-07-15T15:29:47.425482'
p1396
aI2
ag90
aI47
ag91
aa(lp1397
S'2015-07-15T18:08:09.689469'
p1398
aI6
ag94
aI23
ag95
aa(lp1399
S'2015-07-15T19:53:30.829204'
p1400
aI7
ag98
aI24
ag99
aa(lp1401
S'2015-07-16T14:37:57.219344'
p1402
aI8
ag399
aI4
ag400
aa(lp1403
S'2015-07-16T17:50:16.817864'
p1404
aI4
ag106
aI28
ag107
aa(lp1405
S'2015-07-21T11:59:19.248023'
p1406
aI7
ag245
aI17
ag246
aa(lp1407
S'2015-07-22T11:44:14.126316'
p1408
aI0
ag118
aI9
ag119
aa(lp1409
S'2015-07-22T12:17:32.355246'
p1410
aI6
ag122
aI21
ag123
aa(lp1411
S'2015-07-22T15:00:32.374997'
p1412
aI2
ag980
aI44
ag981
aa(lp1413
S'2015-07-30T12:58:38.676416'
p1414
aI6
ag1178
aI23
ag1179
aa(lp1415
S'2015-07-30T14:07:42.144825'
p1416
aI0
ag134
aI15
ag135
aa(lp1417
S'2015-07-30T16:56:30.452972'
p1418
aI6
ag142
aI29
ag143
aasg144
(dp1419
I0
I38
sI1
I162
sI2
I133
sI3
I18
sI4
I83
sI5
I48
sI6
I145
sI7
I57
sI8
I6
ssg146
g1357
sbsVU04RM6FDJ
p1420
(iUser
User
p1421
(dp1422
g4
Vshjoyner
p1423
sg6
(dp1424
I0
I5
sI1
I3
sI2
I2
sI3
I2
sI4
I4
sI5
I3
sI6
I9
sI7
I5
sI8
I3
ssg8
(dp1425
sg12
VShannon Joyner
p1426
sg14
(lp1427
(lp1428
S'2015-06-29T15:39:08.557141'
p1429
aI8
ag744
aI4
ag745
aa(lp1430
S'2015-06-30T15:13:19.580827'
p1431
aI0
ag916
aI10
ag917
aa(lp1432
S'2015-06-30T16:05:07.979307'
p1433
aI4
ag18
aI24
ag19
aa(lp1434
S'2015-07-01T14:22:41.645881'
p1435
aI5
ag465
aI25
ag466
aa(lp1436
S'2015-07-02T11:54:28.309147'
p1437
aI1
aVplanks
p1438
aI46
aVsecond
p1439
aa(lp1440
S'2015-07-02T13:36:41.815680'
p1441
aI5
ag30
aI22
ag31
aa(lp1442
S'2015-07-06T09:56:26.796012'
p1443
aI2
ag288
aI49
ag289
aa(lp1444
S'2015-07-06T11:46:49.609571'
p1445
aI6
ag667
aI24
ag668
aa(lp1446
S'2015-07-06T13:35:51.347622'
p1447
aI7
ag34
aI17
ag35
aa(lp1448
S'2015-07-07T11:02:34.041205'
p1449
aI6
ag38
aI19
ag39
aa(lp1450
S'2015-07-07T11:31:41.196411'
p1451
aI4
ag42
aI30
ag43
aa(lp1452
S'2015-07-07T11:59:58.221747'
p1453
aI1
ag46
aI60
ag47
aa(lp1454
S'2015-07-07T12:28:29.280208'
p1455
aI6
ag50
aI30
ag51
aa(lp1456
S'2015-07-07T13:52:26.582473'
p1457
aI1
ag58
aI55
ag59
aa(lp1458
S'2015-07-07T14:58:07.738669'
p1459
aI4
ag1130
aI22
ag1131
aa(lp1460
S'2015-07-07T17:12:11.001914'
p1461
aI3
ag495
aI10
ag496
aa(lp1462
S'2015-07-13T13:30:08.762371'
p1463
aI3
aVchair dips
p1464
aI16
aVrep
p1465
aa(lp1466
S'2015-07-13T16:59:46.703564'
p1467
aI0
aVpushups
p1468
aI8
aVrep
p1469
aa(lp1470
S'2015-07-14T12:01:51.728231'
p1471
aI7
ag82
aI16
ag83
aa(lp1472
S'2015-07-14T12:35:54.575332'
p1473
aI7
ag865
aI28
ag866
aa(lp1474
S'2015-07-14T16:39:22.210422'
p1475
aI6
ag869
aI17
ag870
aa(lp1476
S'2015-07-15T14:20:39.003703'
p1477
aI7
ag324
aI29
ag325
aa(lp1478
S'2015-07-15T17:40:08.629996'
p1479
aI2
ag1041
aI49
ag1042
aa(lp1480
S'2015-07-15T18:08:09.689473'
p1481
aI6
ag94
aI23
ag95
aa(lp1482
S'2015-07-15T19:53:30.829210'
p1483
aI7
ag98
aI24
ag99
aa(lp1484
S'2015-07-16T15:36:21.471515'
p1485
aI5
ag1049
aI24
ag1050
aa(lp1486
S'2015-07-16T17:50:16.817868'
p1487
aI4
ag106
aI28
ag107
aa(lp1488
S'2015-07-21T11:27:53.900434'
p1489
aI6
ag1338
aI25
ag1339
aa(lp1490
S'2015-07-21T15:15:22.012176'
p1491
aI0
ag535
aI16
ag536
aa(lp1492
S'2015-07-22T11:44:14.126320'
p1493
aI0
ag118
aI9
ag119
aa(lp1494
S'2015-07-22T12:17:32.355250'
p1495
aI6
ag122
aI21
ag123
aa(lp1496
S'2015-07-22T12:47:45.263993'
p1497
aI8
aVburpees
p1498
aI1
aVrep
p1499
aa(lp1500
S'2015-07-22T15:30:10.478127'
p1501
aI8
ag126
aI1
ag127
aa(lp1502
S'2015-07-30T12:58:38.676442'
p1503
aI6
ag1178
aI23
ag1179
aa(lp1504
S'2015-07-30T14:07:42.144830'
p1505
aI0
ag134
aI15
ag135
aa(lp1506
S'2015-07-30T16:56:30.452977'
p1507
aI6
ag142
aI29
ag143
aasg144
(dp1508
I0
I58
sI1
I161
sI2
I98
sI3
I26
sI4
I104
sI5
I71
sI6
I211
sI7
I114
sI8
I6
ssg146
g1420
sbsVU052DJ4QB
p1509
(iUser
User
p1510
(dp1511
g4
Vleo.mehr
p1512
sg6
(dp1513
I0
I4
sI1
I4
sI2
I5
sI3
I2
sI4
I4
sI5
I1
sI6
I6
sI7
I4
sI8
I3
ssg8
(dp1514
S'2015-06-26 15:23:02.611694'
p1515
(dp1516
I5
I28
sssg12
VLeo Mehr
p1517
sg14
(lp1518
(lp1519
S'2015-06-26T15:13:24.979070'
p1520
aI5
ag1197
aI28
ag1198
aa(lp1521
S'2015-06-30T15:44:45.967654'
p1522
aI4
aVcalf raises
p1523
aI28
aVrep
p1524
aa(lp1525
S'2015-06-30T16:05:07.979311'
p1526
aI4
ag18
aI24
ag19
aa(lp1527
S'2015-07-01T11:31:29.015378'
p1528
aI1
ag922
aI42
ag923
aa(lp1529
S'2015-07-01T17:31:09.912749'
p1530
aI2
ag469
aI48
ag470
aa(lp1531
S'2015-07-02T13:12:15.754195'
p1532
aI3
aVchair dips
p1533
aI10
aVrep
p1534
aa(lp1535
S'2015-07-02T13:36:41.815684'
p1536
aI5
ag30
aI22
ag31
aa(lp1537
S'2015-07-06T12:48:11.249902'
p1538
aI6
ag292
aI29
ag293
aa(lp1539
S'2015-07-06T15:03:15.227709'
p1540
aI1
ag296
aI40
ag297
aa(lp1541
S'2015-07-07T11:02:34.041209'
p1542
aI6
ag38
aI19
ag39
aa(lp1543
S'2015-07-07T11:31:41.196415'
p1544
aI4
ag42
aI30
ag43
aa(lp1545
S'2015-07-07T11:59:58.221751'
p1546
aI1
ag46
aI60
ag47
aa(lp1547
S'2015-07-07T12:28:29.280211'
p1548
aI6
ag50
aI30
ag51
aa(lp1549
S'2015-07-07T13:52:26.582477'
p1550
aI1
ag58
aI55
ag59
aa(lp1551
S'2015-07-07T14:24:49.383625'
p1552
aI0
ag310
aI8
ag311
aa(lp1553
S'2015-07-09T14:47:48.974864'
p1554
aI2
ag377
aI46
ag378
aa(lp1555
S'2015-07-13T12:54:27.871097'
p1556
aI7
ag1231
aI19
ag1232
aa(lp1557
S'2015-07-13T16:24:22.144255'
p1558
aI3
ag209
aI14
ag210
aa(lp1559
S'2015-07-14T12:01:51.728235'
p1560
aI7
ag82
aI16
ag83
aa(lp1561
S'2015-07-14T13:10:59.930551'
p1562
aI8
ag320
aI5
ag321
aa(lp1563
S'2015-07-15T14:20:39.003691'
p1564
aI7
ag324
aI29
ag325
aa(lp1565
S'2015-07-15T17:40:08.629990'
p1566
aI2
ag1041
aI49
ag1042
aa(lp1567
S'2015-07-15T18:08:09.689477'
p1568
aI6
ag94
aI23
ag95
aa(lp1569
S'2015-07-15T19:53:30.829215'
p1570
aI7
ag98
aI24
ag99
aa(lp1571
S'2015-07-16T15:07:15.182342'
p1572
aI2
ag709
aI41
ag710
aa(lp1573
S'2015-07-16T17:50:16.817873'
p1574
aI4
ag106
aI28
ag107
aa(lp1575
S'2015-07-21T14:40:49.190942'
p1576
aI0
ag432
aI11
ag433
aa(lp1577
S'2015-07-22T11:44:14.126324'
p1578
aI0
ag118
aI9
ag119
aa(lp1579
S'2015-07-22T12:17:32.355255'
p1580
aI6
ag122
aI21
ag123
aa(lp1581
S'2015-07-22T12:47:45.263999'
p1582
aI8
ag1498
aI1
ag1499
aa(lp1583
S'2015-07-22T16:02:14.137167'
p1584
aI8
ag409
aI4
ag410
aa(lp1585
S'2015-07-30T12:22:16.422978'
p1586
aI2
ag1065
aI44
ag1066
aa(lp1587
S'2015-07-30T14:07:42.144835'
p1588
aI0
ag134
aI15
ag135
aa(lp1589
S'2015-07-30T16:56:30.452982'
p1590
aI6
ag142
aI29
ag143
aasg144
(dp1591
I0
I43
sI1
I197
sI2
I228
sI3
I24
sI4
I110
sI5
I22
sI6
I151
sI7
I88
sI8
I10
ssg146
g1509
sbsVU087XATRD
p1592
(iUser
User
p1593
(dp1594
g4
Vclay
p1595
sg6
(dp1596
I0
I2
sI5
I1
sI6
I1
ssg8
(dp1597
sg12
VClay McClure
p1598
sg14
(lp1599
(lp1600
S'2015-07-30T10:37:42.574009'
p1601
aI0
ag446
aI18
ag447
aa(lp1602
S'2015-07-30T11:46:27.973163'
p1603
aI5
ag1263
aI24
ag1264
aa(lp1604
S'2015-07-30T14:07:42.144840'
p1605
aI0
ag134
aI15
ag135
aa(lp1606
S'2015-07-30T16:56:30.452986'
p1607
aI6
ag142
aI29
ag143
aasg144
(dp1608
I0
I33
sI5
I24
sI6
I29
ssg146
g1592
sbsVU04C741CZ
p1609
(iUser
User
p1610
(dp1611
g4
Vjamies
p1612
sg6
(dp1613
I0
I6
sI1
I3
sI2
I3
sI3
I1
sI4
I4
sI5
I3
sI6
I8
sI7
I4
sI8
I1
ssg8
(dp1614
S'2015-06-26 15:23:02.611706'
p1615
(dp1616
ssg12
VJamie Saunders
p1617
sg14
(lp1618
(lp1619
S'2015-06-30T16:05:07.979315'
p1620
aI4
ag18
aI24
ag19
aa(lp1621
S'2015-06-30T16:57:45.797016'
p1622
aI7
ag276
aI26
ag277
aa(lp1623
S'2015-07-01T15:41:17.492969'
p1624
aI3
ag165
aI11
ag166
aa(lp1625
S'2015-07-02T13:36:41.815689'
p1626
aI5
ag30
aI22
ag31
aa(lp1627
S'2015-07-06T11:46:49.609582'
p1628
aI6
ag667
aI24
ag668
aa(lp1629
S'2015-07-06T13:14:43.773348'
p1630
aI1
ag1114
aI47
ag1115
aa(lp1631
S'2015-07-06T15:27:08.457051'
p1632
aI5
ag361
aI22
ag362
aa(lp1633
S'2015-07-07T11:02:34.041214'
p1634
aI6
ag38
aI19
ag39
aa(lp1635
S'2015-07-07T11:31:41.196420'
p1636
aI4
ag42
aI30
ag43
aa(lp1637
S'2015-07-07T11:59:58.221756'
p1638
aI1
ag46
aI60
ag47
aa(lp1639
S'2015-07-07T12:28:29.280215'
p1640
aI6
ag50
aI30
ag51
aa(lp1641
S'2015-07-07T13:52:26.582482'
p1642
aI1
ag58
aI55
ag59
aa(lp1643
S'2015-07-07T16:03:26.601678'
p1644
aI4
ag197
aI20
ag198
aa(lp1645
S'2015-07-09T13:42:27.775575'
p1646
aI0
ag594
aI9
ag595
aa(lp1647
S'2015-07-09T16:42:59.700018'
p1648
aI0
ag598
aI14
ag599
aa(lp1649
S'2015-07-13T10:29:32.910962'
p1650
aI5
ag1138
aI26
ag1139
aa(lp1651
S'2015-07-13T15:18:53.333351'
p1652
aI0
ag1142
aI8
ag1143
aa(lp1653
S'2015-07-14T12:01:51.728244'
p1654
aI7
ag82
aI16
ag83
aa(lp1655
S'2015-07-14T14:57:34.578456'
p1656
aI2
ag215
aI42
ag216
aa(lp1657
S'2015-07-15T14:20:39.003676'
p1658
aI7
ag324
aI29
ag325
aa(lp1659
S'2015-07-15T17:40:08.629984'
p1660
aI2
ag1041
aI49
ag1042
aa(lp1661
S'2015-07-15T18:08:09.689485'
p1662
aI6
ag94
aI23
ag95
aa(lp1663
S'2015-07-15T19:53:30.829224'
p1664
aI7
ag98
aI24
ag99
aa(lp1665
S'2015-07-16T14:37:57.219372'
p1666
aI8
ag399
aI4
ag400
aa(lp1667
S'2015-07-16T17:50:16.817878'
p1668
aI4
ag106
aI28
ag107
aa(lp1669
S'2015-07-21T11:27:53.900451'
p1670
aI6
ag1338
aI25
ag1339
aa(lp1671
S'2015-07-21T15:15:22.012183'
p1672
aI0
ag535
aI16
ag536
aa(lp1673
S'2015-07-22T11:44:14.126329'
p1674
aI0
ag118
aI9
ag119
aa(lp1675
S'2015-07-22T12:17:32.355259'
p1676
aI6
ag122
aI21
ag123
aa(lp1677
S'2015-07-22T15:00:32.375017'
p1678
aI2
ag980
aI44
ag981
aa(lp1679
S'2015-07-30T12:58:38.676460'
p1680
aI6
ag1178
aI23
ag1179
aa(lp1681
S'2015-07-30T14:07:42.144844'
p1682
aI0
ag134
aI15
ag135
aa(lp1683
S'2015-07-30T16:56:30.452991'
p1684
aI6
ag142
aI29
ag143
aasg144
(dp1685
I0
I71
sI1
I162
sI2
I135
sI3
I11
sI4
I102
sI5
I70
sI6
I194
sI7
I95
sI8
I4
ssg146
g1609
sbsVU052DLH79
p1686
(iUser
User
p1687
(dp1688
g4
Vterror
p1689
sg6
(dp1690
I0
I4
sI1
I4
sI2
I2
sI3
I3
sI4
I4
sI5
I2
sI6
I8
sI7
I4
sI8
I3
ssg8
(dp1691
S'2015-06-26 15:23:02.611740'
p1692
(dp1693
ssg12
VTerence An
p1694
sg14
(lp1695
(lp1696
S'2015-06-29T15:58:13.380733'
p1697
aI1
ag353
aI59
ag354
aa(lp1698
S'2015-06-30T16:05:07.979364'
p1699
aI4
ag18
aI24
ag19
aa(lp1700
S'2015-07-01T15:41:17.492975'
p1701
aI3
ag165
aI11
ag166
aa(lp1702
S'2015-07-02T10:39:25.125330'
p1703
aI7
aVsitups
p1704
aI27
aVrep
p1705
aa(lp1706
S'2015-07-02T13:36:41.815732'
p1707
aI5
ag30
aI22
ag31
aa(lp1708
S'2015-07-06T12:48:11.249926'
p1709
aI6
ag292
aI29
ag293
aa(lp1710
S'2015-07-06T14:40:18.622383'
p1711
aI2
ag934
aI41
ag935
aa(lp1712
S'2015-07-07T11:02:34.041256'
p1713
aI6
ag38
aI19
ag39
aa(lp1714
S'2015-07-07T11:31:41.196460'
p1715
aI4
ag42
aI30
ag43
aa(lp1716
S'2015-07-07T11:59:58.221795'
p1717
aI1
ag46
aI60
ag47
aa(lp1718
S'2015-07-07T12:28:29.280253'
p1719
aI6
ag50
aI30
ag51
aa(lp1720
S'2015-07-07T13:52:26.582524'
p1721
aI1
ag58
aI55
ag59
aa(lp1722
S'2015-07-07T16:03:26.601646'
p1723
aI4
ag197
aI20
ag198
aa(lp1724
S'2015-07-09T15:16:37.216534'
p1725
aI2
aVwall sit
p1726
aI46
aVsecond
p1727
aa(lp1728
S'2015-07-13T09:56:29.773496'
p1729
aI0
aVpushups
p1730
aI13
aVrep
p1731
aa(lp1732
S'2015-07-13T13:30:08.762389'
p1733
aI3
ag1464
aI16
ag1465
aa(lp1734
S'2015-07-13T16:59:46.703585'
p1735
aI0
ag1468
aI8
ag1469
aa(lp1736
S'2015-07-14T12:01:51.728301'
p1737
aI7
ag82
aI16
ag83
aa(lp1738
S'2015-07-14T12:35:54.575347'
p1739
aI7
ag865
aI28
ag866
aa(lp1740
S'2015-07-14T16:39:22.210428'
p1741
aI6
ag869
aI17
ag870
aa(lp1742
S'2015-07-15T16:01:45.140132'
p1743
aI8
ag391
aI2
ag392
aa(lp1744
S'2015-07-15T18:08:09.689532'
p1745
aI6
ag94
aI23
ag95
aa(lp1746
S'2015-07-15T18:42:43.886797'
p1747
aI3
ag792
aI20
ag793
aa(lp1748
S'2015-07-15T19:53:30.829275'
p1749
aI7
ag98
aI24
ag99
aa(lp1750
S'2015-07-16T16:11:18.883535'
p1751
aI6
ag529
aI17
ag530
aa(lp1752
S'2015-07-16T17:50:16.817886'
p1753
aI4
ag106
aI28
ag107
aa(lp1754
S'2015-07-21T13:33:14.946588'
p1755
aI5
ag1055
aI26
ag1056
aa(lp1756
S'2015-07-22T11:10:28.009239'
p1757
aI1
ag114
aI56
ag115
aa(lp1758
S'2015-07-22T11:44:14.126333'
p1759
aI0
ag118
aI9
ag119
aa(lp1760
S'2015-07-22T12:17:32.355264'
p1761
aI6
ag122
aI21
ag123
aa(lp1762
S'2015-07-22T17:12:06.716615'
p1763
aI8
ag547
aI2
ag548
aa(lp1764
S'2015-07-30T14:07:42.144849'
p1765
aI0
ag134
aI15
ag135
aa(lp1766
S'2015-07-30T14:44:39.941707'
p1767
aI8
ag259
aI5
ag260
aa(lp1768
S'2015-07-30T16:56:30.452995'
p1769
aI6
ag142
aI29
ag143
aasg144
(dp1770
I0
I45
sI1
I230
sI2
I87
sI3
I47
sI4
I102
sI5
I48
sI6
I185
sI7
I95
sI8
I9
ssg146
g1686
sbsVU04BJM2JE
p1771
(iUser
User
p1772
(dp1773
g4
Vnilesh
p1774
sg6
(dp1775
I0
I3
sI1
I2
sI2
I3
sI3
I2
sI4
I4
sI5
I3
sI6
I8
sI7
I2
sI8
I3
ssg8
(dp1776
sg12
VNilesh Hirve
p1777
sg14
(lp1778
(lp1779
S'2015-07-06T12:26:25.132275'
p1780
aI6
ag475
aI28
ag476
aa(lp1781
S'2015-07-06T14:19:40.622333'
p1782
aI4
ag479
aI24
ag480
aa(lp1783
S'2015-07-06T16:46:32.522156'
p1784
aI0
ag1011
aI19
ag1012
aa(lp1785
S'2015-07-07T11:02:34.041247'
p1786
aI6
ag38
aI19
ag39
aa(lp1787
S'2015-07-07T11:31:41.196450'
p1788
aI4
ag42
aI30
ag43
aa(lp1789
S'2015-07-07T11:59:58.221786'
p1790
aI1
ag46
aI60
ag47
aa(lp1791
S'2015-07-07T12:28:29.280245'
p1792
aI6
ag50
aI30
ag51
aa(lp1793
S'2015-07-07T13:52:26.582495'
p1794
aI1
ag58
aI55
ag59
aa(lp1795
S'2015-07-07T15:33:50.260766'
p1796
aI3
ag1025
aI18
ag1026
aa(lp1797
S'2015-07-08T11:18:36.614775'
p1798
aI2
aVwall sit
p1799
aI44
aVsecond
p1800
aa(lp1801
S'2015-07-09T14:47:48.974859'
p1802
aI2
ag377
aI46
ag378
aa(lp1803
S'2015-07-13T14:07:46.804105'
p1804
aI8
ag687
aI1
ag688
aa(lp1805
S'2015-07-14T12:01:51.728262'
p1806
aI7
ag82
aI16
ag83
aa(lp1807
S'2015-07-14T13:45:17.213184'
p1808
aI4
ag86
aI29
ag87
aa(lp1809
S'2015-07-15T13:48:10.914550'
p1810
aI6
ag219
aI18
ag220
aa(lp1811
S'2015-07-15T17:05:26.906009'
p1812
aI3
ag223
aI8
ag224
aa(lp1813
S'2015-07-15T18:08:09.689494'
p1814
aI6
ag94
aI23
ag95
aa(lp1815
S'2015-07-15T19:53:30.829233'
p1816
aI7
ag98
aI24
ag99
aa(lp1817
S'2015-07-16T17:21:14.788216'
p1818
aI2
ag239
aI40
ag240
aa(lp1819
S'2015-07-16T17:50:16.817891'
p1820
aI4
ag106
aI28
ag107
aa(lp1821
S'2015-07-21T11:27:53.900440'
p1822
aI6
ag1338
aI25
ag1339
aa(lp1823
S'2015-07-21T13:02:42.935190'
p1824
aI5
ag970
aI22
ag971
aa(lp1825
S'2015-07-22T11:44:14.126337'
p1826
aI0
ag118
aI9
ag119
aa(lp1827
S'2015-07-22T12:17:32.355268'
p1828
aI6
ag122
aI21
ag123
aa(lp1829
S'2015-07-22T12:47:45.264011'
p1830
aI8
ag1498
aI1
ag1499
aa(lp1831
S'2015-07-22T16:35:52.437520'
p1832
aI5
ag1172
aI23
ag1173
aa(lp1833
S'2015-07-30T11:46:27.973142'
p1834
aI5
ag1263
aI24
ag1264
aa(lp1835
S'2015-07-30T14:07:42.144853'
p1836
aI0
ag134
aI15
ag135
aa(lp1837
S'2015-07-30T15:46:46.993852'
p1838
aI8
ag415
aI5
ag416
aa(lp1839
S'2015-07-30T16:56:30.452999'
p1840
aI6
ag142
aI29
ag143
aasg144
(dp1841
I0
I43
sI1
I115
sI2
I130
sI3
I26
sI4
I111
sI5
I69
sI6
I193
sI7
I40
sI8
I7
ssg146
g1771
sbsVU070HL4NR
p1842
(iUser
User
p1843
(dp1844
g4
Vswolebot
p1845
sg6
(dp1846
I0
I2
sI1
I2
sI2
I1
sI4
I2
sI5
I1
sI6
I5
sI7
I2
sI8
I1
ssg8
(dp1847
sg12
V
p1848
sg14
(lp1849
(lp1850
S'2015-07-01T10:45:28.521798'
p1851
aI2
ag1102
aI46
ag1103
aa(lp1852
S'2015-07-01T15:02:00.360158'
p1853
aI8
aVburpees
p1854
aI2
aVrep
p1855
aa(lp1856
S'2015-07-02T13:36:41.815706'
p1857
aI5
ag30
aI22
ag31
aa(lp1858
S'2015-07-07T11:02:34.041227'
p1859
aI6
ag38
aI19
ag39
aa(lp1860
S'2015-07-07T11:31:41.196433'
p1861
aI4
ag42
aI30
ag43
aa(lp1862
S'2015-07-07T11:59:58.221769'
p1863
aI1
ag46
aI60
ag47
aa(lp1864
S'2015-07-07T12:28:29.280228'
p1865
aI6
ag50
aI30
ag51
aa(lp1866
S'2015-07-07T13:52:26.582499'
p1867
aI1
ag58
aI55
ag59
aa(lp1868
S'2015-07-14T12:01:51.728267'
p1869
aI7
ag82
aI16
ag83
aa(lp1870
S'2015-07-15T18:08:09.689498'
p1871
aI6
ag94
aI23
ag95
aa(lp1872
S'2015-07-15T19:53:30.829237'
p1873
aI7
ag98
aI24
ag99
aa(lp1874
S'2015-07-16T17:50:16.817896'
p1875
aI4
ag106
aI28
ag107
aa(lp1876
S'2015-07-22T11:44:14.126341'
p1877
aI0
ag118
aI9
ag119
aa(lp1878
S'2015-07-22T12:17:32.355273'
p1879
aI6
ag122
aI21
ag123
aa(lp1880
S'2015-07-30T14:07:42.144858'
p1881
aI0
ag134
aI15
ag135
aa(lp1882
S'2015-07-30T16:56:30.453003'
p1883
aI6
ag142
aI29
ag143
aasg144
(dp1884
I0
I24
sI1
I115
sI2
I46
sI4
I58
sI5
I22
sI6
I122
sI7
I40
sI8
I2
ssg146
g1842
sbsVU04BJ3D8U
p1885
(iUser
User
p1886
(dp1887
g4
Vmarkh
p1888
sg6
(dp1889
I0
I3
sI1
I3
sI2
I2
sI3
I1
sI4
I3
sI5
I2
sI6
I5
sI7
I4
sI8
I2
ssg8
(dp1890
S'2015-06-26 15:23:02.611764'
p1891
(dp1892
ssg12
VMark Hendrick
p1893
sg14
(lp1894
(lp1895
S'2015-06-30T13:20:30.585299'
p1896
aI5
ag649
aI28
ag650
aa(lp1897
S'2015-06-30T16:05:07.979341'
p1898
aI4
ag18
aI24
ag19
aa(lp1899
S'2015-07-02T13:36:41.815594'
p1900
aI5
ag30
aI22
ag31
aa(lp1901
S'2015-07-07T11:02:34.041110'
p1902
aI6
ag38
aI19
ag39
aa(lp1903
S'2015-07-07T11:31:41.196259'
p1904
aI4
ag42
aI30
ag43
aa(lp1905
S'2015-07-07T11:59:58.221655'
p1906
aI1
ag46
aI60
ag47
aa(lp1907
S'2015-07-07T12:28:29.280124'
p1908
aI6
ag50
aI30
ag51
aa(lp1909
S'2015-07-07T13:52:26.582503'
p1910
aI1
ag58
aI55
ag59
aa(lp1911
S'2015-07-13T09:56:29.773516'
p1912
aI0
ag1730
aI13
ag1731
aa(lp1913
S'2015-07-13T12:54:27.871124'
p1914
aI7
ag1231
aI19
ag1232
aa(lp1915
S'2015-07-14T12:01:51.728139'
p1916
aI7
ag82
aI16
ag83
aa(lp1917
S'2015-07-14T13:10:59.930556'
p1918
aI8
ag320
aI5
ag321
aa(lp1919
S'2015-07-15T16:30:35.952734'
p1920
aI3
ag875
aI15
ag876
aa(lp1921
S'2015-07-15T18:08:09.689502'
p1922
aI6
ag94
aI23
ag95
aa(lp1923
S'2015-07-15T19:17:51.715202'
p1924
aI2
ag703
aI50
ag704
aa(lp1925
S'2015-07-15T19:53:30.829242'
p1926
aI7
ag98
aI24
ag99
aa(lp1927
S'2015-07-16T17:50:16.817742'
p1928
aI4
ag106
aI28
ag107
aa(lp1929
S'2015-07-21T14:08:39.110069'
p1930
aI7
ag887
aI16
ag888
aa(lp1931
S'2015-07-22T11:10:28.009251'
p1932
aI1
ag114
aI56
ag115
aa(lp1933
S'2015-07-22T11:44:14.126210'
p1934
aI0
ag118
aI9
ag119
aa(lp1935
S'2015-07-22T12:17:32.355156'
p1936
aI6
ag122
aI21
ag123
aa(lp1937
S'2015-07-22T16:02:14.137161'
p1938
aI8
ag409
aI4
ag410
aa(lp1939
S'2015-07-30T12:22:16.423008'
p1940
aI2
ag1065
aI44
ag1066
aa(lp1941
S'2015-07-30T14:07:42.144862'
p1942
aI0
ag134
aI15
ag135
aa(lp1943
S'2015-07-30T16:56:30.453007'
p1944
aI6
ag142
aI29
ag143
aasg144
(dp1945
I0
I37
sI1
I171
sI2
I94
sI3
I15
sI4
I82
sI5
I50
sI6
I122
sI7
I75
sI8
I9
ssg146
g1885
sbsVU069R69UK
p1946
(iUser
User
p1947
(dp1948
g4
Vlstamp
p1949
sg6
(dp1950
I0
I3
sI1
I2
sI2
I2
sI4
I1
sI5
I2
sI6
I5
sI7
I1
sI8
I1
ssg8
(dp1951
sg12
VLaura Stamp
p1952
sg14
(lp1953
(lp1954
S'2015-07-14T14:57:34.578448'
p1955
aI2
ag215
aI42
ag216
aa(lp1956
S'2015-07-15T13:48:10.914566'
p1957
aI6
ag219
aI18
ag220
aa(lp1958
S'2015-07-15T16:01:45.140149'
p1959
aI8
ag391
aI2
ag392
aa(lp1960
S'2015-07-15T18:08:09.689506'
p1961
aI6
ag94
aI23
ag95
aa(lp1962
S'2015-07-15T19:53:30.829247'
p1963
aI7
ag98
aI24
ag99
aa(lp1964
S'2015-07-16T15:36:21.471500'
p1965
aI5
ag1049
aI24
ag1050
aa(lp1966
S'2015-07-16T17:50:16.817906'
p1967
aI4
ag106
aI28
ag107
aa(lp1968
S'2015-07-21T12:29:48.031424'
p1969
aI1
ag110
aI58
ag111
aa(lp1970
S'2015-07-21T14:40:49.190954'
p1971
aI0
ag432
aI11
ag433
aa(lp1972
S'2015-07-22T11:10:28.009232'
p1973
aI1
ag114
aI56
ag115
aa(lp1974
S'2015-07-22T11:44:14.126350'
p1975
aI0
ag118
aI9
ag119
aa(lp1976
S'2015-07-22T12:17:32.355282'
p1977
aI6
ag122
aI21
ag123
aa(lp1978
S'2015-07-22T15:00:32.375028'
p1979
aI2
ag980
aI44
ag981
aa(lp1980
S'2015-07-30T11:46:27.973121'
p1981
aI5
ag1263
aI24
ag1264
aa(lp1982
S'2015-07-30T14:07:42.144867'
p1983
aI0
ag134
aI15
ag135
aa(lp1984
S'2015-07-30T16:22:21.395626'
p1985
aI6
ag1269
aI25
ag1270
aa(lp1986
S'2015-07-30T16:56:30.453011'
p1987
aI6
ag142
aI29
ag143
aasg144
(dp1988
I0
I35
sI1
I114
sI2
I86
sI4
I28
sI5
I48
sI6
I116
sI7
I24
sI8
I2
ssg146
g1946
sbsVU04PGUZ6C
p1989
(iUser
User
p1990
(dp1991
g4
Vlhuang
p1992
sg6
(dp1993
I8
I1
sI0
I1
sI6
I2
ssg8
(dp1994
sg12
VLawrence Huang
p1995
sg14
(lp1996
(lp1997
S'2015-07-30T11:13:46.420252'
p1998
aI8
ag130
aI3
ag131
aa(lp1999
S'2015-07-30T14:07:42.144872'
p2000
aI0
ag134
aI15
ag135
aa(lp2001
S'2015-07-30T16:22:21.395633'
p2002
aI6
ag1269
aI25
ag1270
aa(lp2003
S'2015-07-30T16:56:30.453016'
p2004
aI6
ag142
aI29
ag143
aasg144
(dp2005
I8
I3
sI0
I15
sI6
I54
ssg146
g1989
sbsVU052DN5CH
p2006
(iUser
User
p2007
(dp2008
g4
Vdiane
p2009
sg6
(dp2010
I0
I4
sI1
I2
sI2
I3
sI3
I2
sI4
I7
sI5
I4
sI6
I7
sI7
I2
sI8
I4
ssg8
(dp2011
sg12
VDiane Wang
p2012
sg14
(lp2013
(lp2014
S'2015-06-30T13:20:30.585293'
p2015
aI5
ag649
aI28
ag650
aa(lp2016
S'2015-06-30T14:45:40.464439'
p2017
aI3
ag748
aI20
ag749
aa(lp2018
S'2015-06-30T16:05:07.979351'
p2019
aI4
ag18
aI24
ag19
aa(lp2020
S'2015-07-01T15:02:00.360140'
p2021
aI8
ag1854
aI2
ag1855
aa(lp2022
S'2015-07-02T13:36:41.815719'
p2023
aI5
ag30
aI22
ag31
aa(lp2024
S'2015-07-06T12:07:12.575039'
p2025
aI2
ag175
aI41
ag176
aa(lp2026
S'2015-07-06T14:19:40.622344'
p2027
aI4
ag479
aI24
ag480
aa(lp2028
S'2015-07-06T16:46:32.522168'
p2029
aI0
ag1011
aI19
ag1012
aa(lp2030
S'2015-07-07T11:02:34.041237'
p2031
aI6
ag38
aI19
ag39
aa(lp2032
S'2015-07-07T11:31:41.196442'
p2033
aI4
ag42
aI30
ag43
aa(lp2034
S'2015-07-07T11:59:58.221778'
p2035
aI1
ag46
aI60
ag47
aa(lp2036
S'2015-07-07T12:28:29.280237'
p2037
aI6
ag50
aI30
ag51
aa(lp2038
S'2015-07-07T13:52:26.582507'
p2039
aI1
ag58
aI55
ag59
aa(lp2040
S'2015-07-07T14:58:07.738663'
p2041
aI4
ag1130
aI22
ag1131
aa(lp2042
S'2015-07-08T11:54:00.769217'
p2043
aI4
ag201
aI23
ag202
aa(lp2044
S'2015-07-09T13:42:27.775595'
p2045
aI0
ag594
aI9
ag595
aa(lp2046
S'2015-07-09T17:17:38.312265'
p2047
aI3
ag503
aI14
ag504
aa(lp2048
S'2015-07-13T10:29:32.910973'
p2049
aI5
ag1138
aI26
ag1139
aa(lp2050
S'2015-07-13T15:48:07.752685'
p2051
aI2
ag859
aI42
ag860
aa(lp2052
S'2015-07-14T12:01:51.728278'
p2053
aI7
ag82
aI16
ag83
aa(lp2054
S'2015-07-14T13:45:17.213190'
p2055
aI4
ag86
aI29
ag87
aa(lp2056
S'2015-07-15T15:29:47.425493'
p2057
aI2
ag90
aI47
ag91
aa(lp2058
S'2015-07-15T18:08:09.689510'
p2059
aI6
ag94
aI23
ag95
aa(lp2060
S'2015-07-15T19:53:30.829252'
p2061
aI7
ag98
aI24
ag99
aa(lp2062
S'2015-07-15T20:27:24.746979'
p2063
aI6
ag231
aI21
ag232
aa(lp2064
S'2015-07-16T16:11:18.883549'
p2065
aI6
ag529
aI17
ag530
aa(lp2066
S'2015-07-16T17:50:16.817911'
p2067
aI4
ag106
aI28
ag107
aa(lp2068
S'2015-07-21T13:33:14.946613'
p2069
aI5
ag1055
aI26
ag1056
aa(lp2070
S'2015-07-22T11:44:14.126354'
p2071
aI0
ag118
aI9
ag119
aa(lp2072
S'2015-07-22T12:17:32.355286'
p2073
aI6
ag122
aI21
ag123
aa(lp2074
S'2015-07-22T12:47:45.264005'
p2075
aI8
ag1498
aI1
ag1499
aa(lp2076
S'2015-07-22T16:02:14.137173'
p2077
aI8
ag409
aI4
ag410
aa(lp2078
S'2015-07-30T14:07:42.144876'
p2079
aI0
ag134
aI15
ag135
aa(lp2080
S'2015-07-30T14:44:39.941695'
p2081
aI8
ag259
aI5
ag260
aa(lp2082
S'2015-07-30T16:56:30.453020'
p2083
aI6
ag142
aI29
ag143
aasg144
(dp2084
I0
I52
sI1
I115
sI2
I130
sI3
I34
sI4
I180
sI5
I102
sI6
I160
sI7
I40
sI8
I12
ssg146
g2006
sbsVU04RN0CD8
p2085
(iUser
User
p2086
(dp2087
g4
Vcbuchan
p2088
sg6
(dp2089
I0
I3
sI1
I4
sI2
I4
sI3
I2
sI4
I5
sI5
I2
sI6
I6
sI7
I5
sI8
I2
ssg8
(dp2090
S'2015-06-26 15:23:02.611787'
p2091
(dp2092
ssg12
VCollin Buchan
p2093
sg14
(lp2094
(lp2095
S'2015-06-30T16:05:07.979355'
p2096
aI4
ag18
aI24
ag19
aa(lp2097
S'2015-07-01T15:24:32.100961'
p2098
aI1
ag282
aI59
ag283
aa(lp2099
S'2015-07-02T10:56:49.502452'
p2100
aI4
ag169
aI21
ag170
aa(lp2101
S'2015-07-02T13:36:41.815723'
p2102
aI5
ag30
aI22
ag31
aa(lp2103
S'2015-07-06T13:35:51.347610'
p2104
aI7
ag34
aI17
ag35
aa(lp2105
S'2015-07-06T17:16:34.225483'
p2106
aI6
ag183
aI22
ag184
aa(lp2107
S'2015-07-07T11:02:34.041242'
p2108
aI6
ag38
aI19
ag39
aa(lp2109
S'2015-07-07T11:31:41.196446'
p2110
aI4
ag42
aI30
ag43
aa(lp2111
S'2015-07-07T11:59:58.221782'
p2112
aI1
ag46
aI60
ag47
aa(lp2113
S'2015-07-07T12:28:29.280241'
p2114
aI6
ag50
aI30
ag51
aa(lp2115
S'2015-07-07T13:52:26.582511'
p2116
aI1
ag58
aI55
ag59
aa(lp2117
S'2015-07-07T15:33:50.260727'
p2118
aI3
ag1025
aI18
ag1026
aa(lp2119
S'2015-07-08T11:18:36.614688'
p2120
aI2
ag1799
aI44
ag1800
aa(lp2121
S'2015-07-09T15:16:37.216548'
p2122
aI2
ag1726
aI46
ag1727
aa(lp2123
S'2015-07-13T09:56:29.773527'
p2124
aI0
ag1730
aI13
ag1731
aa(lp2125
S'2015-07-13T14:07:46.804099'
p2126
aI8
ag687
aI1
ag688
aa(lp2127
S'2015-07-14T11:30:19.681832'
p2128
aI2
ag691
aI49
ag692
aa(lp2129
S'2015-07-14T12:01:51.728287'
p2130
aI7
ag82
aI16
ag83
aa(lp2131
S'2015-07-14T16:04:13.103030'
p2132
aI4
ag513
aI21
ag514
aa(lp2133
S'2015-07-15T14:20:39.003709'
p2134
aI7
ag324
aI29
ag325
aa(lp2135
S'2015-07-15T18:08:09.689514'
p2136
aI6
ag94
aI23
ag95
aa(lp2137
S'2015-07-15T18:42:43.886766'
p2138
aI3
ag792
aI20
ag793
aa(lp2139
S'2015-07-15T19:53:30.829256'
p2140
aI7
ag98
aI24
ag99
aa(lp2141
S'2015-07-16T16:46:26.925570'
p2142
aI1
ag102
aI42
ag103
aa(lp2143
S'2015-07-16T17:50:16.817920'
p2144
aI4
ag106
aI28
ag107
aa(lp2145
S'2015-07-21T14:08:39.110103'
p2146
aI7
ag887
aI16
ag888
aa(lp2147
S'2015-07-22T11:44:14.126363'
p2148
aI0
ag118
aI9
ag119
aa(lp2149
S'2015-07-22T12:17:32.355296'
p2150
aI6
ag122
aI21
ag123
aa(lp2151
S'2015-07-22T13:55:30.511939'
p2152
aI8
ag253
aI2
ag254
aa(lp2153
S'2015-07-22T16:35:52.437556'
p2154
aI5
ag1172
aI23
ag1173
aa(lp2155
S'2015-07-30T13:33:24.011951'
p2156
aI2
ag725
aI46
ag726
aa(lp2157
S'2015-07-30T14:07:42.144881'
p2158
aI0
ag134
aI15
ag135
aa(lp2159
S'2015-07-30T16:56:30.453025'
p2160
aI6
ag142
aI29
ag143
aasg144
(dp2161
I0
I37
sI1
I216
sI2
I185
sI3
I38
sI4
I124
sI5
I45
sI6
I144
sI7
I102
sI8
I3
ssg146
g2085
sbsVU07HULT6Z
p2162
(iUser
User
p2163
(dp2164
g4
Vnicole.ouellette
p2165
sg6
(dp2166
I0
I3
sI1
I1
sI2
I1
sI4
I1
sI6
I4
sI7
I1
sI8
I3
ssg8
(dp2167
sg12
VNicole Ouellette
p2168
sg14
(lp2169
(lp2170
S'2015-07-14T14:57:34.578432'
p2171
aI2
ag215
aI42
ag216
aa(lp2172
S'2015-07-15T18:08:09.689519'
p2173
aI6
ag94
aI23
ag95
aa(lp2174
S'2015-07-15T19:53:30.829261'
p2175
aI7
ag98
aI24
ag99
aa(lp2176
S'2015-07-16T17:50:16.817924'
p2177
aI4
ag106
aI28
ag107
aa(lp2178
S'2015-07-21T12:29:48.031439'
p2179
aI1
ag110
aI58
ag111
aa(lp2180
S'2015-07-21T15:15:22.012162'
p2181
aI0
ag535
aI16
ag536
aa(lp2182
S'2015-07-22T11:44:14.126367'
p2183
aI0
ag118
aI9
ag119
aa(lp2184
S'2015-07-22T12:17:32.355300'
p2185
aI6
ag122
aI21
ag123
aa(lp2186
S'2015-07-22T12:47:45.263976'
p2187
aI8
ag1498
aI1
ag1499
aa(lp2188
S'2015-07-22T15:30:10.478121'
p2189
aI8
ag126
aI1
ag127
aa(lp2190
S'2015-07-30T11:13:46.420234'
p2191
aI8
ag130
aI3
ag131
aa(lp2192
S'2015-07-30T14:07:42.144885'
p2193
aI0
ag134
aI15
ag135
aa(lp2194
S'2015-07-30T16:22:21.395612'
p2195
aI6
ag1269
aI25
ag1270
aa(lp2196
S'2015-07-30T16:56:30.453029'
p2197
aI6
ag142
aI29
ag143
aasg144
(dp2198
I0
I40
sI1
I58
sI2
I42
sI4
I28
sI6
I98
sI7
I24
sI8
I5
ssg146
g2162
sbsVU04SZD31D
p2199
(iUser
User
p2200
(dp2201
g4
Vaicarmic
p2202
sg6
(dp2203
I8
I1
sI0
I1
sI2
I1
sI6
I2
ssg8
(dp2204
sg12
VTony Carmichael
p2205
sg14
(lp2206
(lp2207
S'2015-07-30T11:13:46.420221'
p2208
aI8
ag130
aI3
ag131
aa(lp2209
S'2015-07-30T13:33:24.011934'
p2210
aI2
ag725
aI46
ag726
aa(lp2211
S'2015-07-30T14:07:42.144890'
p2212
aI0
ag134
aI15
ag135
aa(lp2213
S'2015-07-30T16:22:21.395645'
p2214
aI6
ag1269
aI25
ag1270
aa(lp2215
S'2015-07-30T16:56:30.453033'
p2216
aI6
ag142
aI29
ag143
aasg144
(dp2217
I8
I3
sI0
I15
sI2
I46
sI6
I54
ssg146
g2199
sbsVU078P2AFR
p2218
(iUser
User
p2219
(dp2220
g4
Vmithun
p2221
sg6
(dp2222
I0
I3
sI1
I1
sI2
I1
sI4
I4
sI5
I1
sI6
I4
sI7
I3
sI8
I1
ssg8
(dp2223
sg12
g1848
sg14
(lp2224
(lp2225
S'2015-07-07T13:52:26.582516'
p2226
aI1
ag58
aI55
ag59
aa(lp2227
S'2015-07-08T11:54:00.769275'
p2228
aI4
ag201
aI23
ag202
aa(lp2229
S'2015-07-09T15:16:37.216554'
p2230
aI2
ag1726
aI46
ag1727
aa(lp2231
S'2015-07-13T09:56:29.773522'
p2232
aI0
ag1730
aI13
ag1731
aa(lp2233
S'2015-07-13T12:54:27.871129'
p2234
aI7
ag1231
aI19
ag1232
aa(lp2235
S'2015-07-14T12:01:51.728292'
p2236
aI7
ag82
aI16
ag83
aa(lp2237
S'2015-07-15T13:13:16.171843'
p2238
aI4
ag517
aI20
ag518
aa(lp2239
S'2015-07-15T18:08:09.689523'
p2240
aI6
ag94
aI23
ag95
aa(lp2241
S'2015-07-15T19:53:30.829266'
p2242
aI7
ag98
aI24
ag99
aa(lp2243
S'2015-07-16T14:37:57.219361'
p2244
aI8
ag399
aI4
ag400
aa(lp2245
S'2015-07-16T17:50:16.817929'
p2246
aI4
ag106
aI28
ag107
aa(lp2247
S'2015-07-21T11:27:53.900445'
p2248
aI6
ag1338
aI25
ag1339
aa(lp2249
S'2015-07-21T13:33:14.946619'
p2250
aI5
ag1055
aI26
ag1056
aa(lp2251
S'2015-07-22T11:44:14.126371'
p2252
aI0
ag118
aI9
ag119
aa(lp2253
S'2015-07-22T12:17:32.355305'
p2254
aI6
ag122
aI21
ag123
aa(lp2255
S'2015-07-22T14:31:08.978784'
p2256
aI4
ag543
aI27
ag544
aa(lp2257
S'2015-07-30T14:07:42.144894'
p2258
aI0
ag134
aI15
ag135
aa(lp2259
S'2015-07-30T16:56:30.453037'
p2260
aI6
ag142
aI29
ag143
aasg144
(dp2261
I0
I37
sI1
I55
sI2
I46
sI4
I98
sI5
I26
sI6
I98
sI7
I59
sI8
I4
ssg146
g2218
sbsVU04NKP3NX
p2262
(iUser
User
p2263
(dp2264
g4
Vmioi
p2265
sg6
(dp2266
I0
I5
sI1
I3
sI2
I2
sI3
I2
sI4
I6
sI5
I3
sI6
I6
sI7
I2
sI8
I3
ssg8
(dp2267
sg12
VMioi Hanaoka
p2268
sg14
(lp2269
(lp2270
S'2015-06-30T15:44:45.967632'
p2271
aI4
ag1523
aI28
ag1524
aa(lp2272
S'2015-06-30T16:05:07.979360'
p2273
aI4
ag18
aI24
ag19
aa(lp2274
S'2015-07-01T15:02:00.360152'
p2275
aI8
ag1854
aI2
ag1855
aa(lp2276
S'2015-07-02T13:36:41.815728'
p2277
aI5
ag30
aI22
ag31
aa(lp2278
S'2015-07-06T13:14:43.773329'
p2279
aI1
ag1114
aI47
ag1115
aa(lp2280
S'2015-07-06T14:40:18.622394'
p2281
aI2
ag934
aI41
ag935
aa(lp2282
S'2015-07-06T17:16:34.225496'
p2283
aI6
ag183
aI22
ag184
aa(lp2284
S'2015-07-07T11:02:34.041251'
p2285
aI6
ag38
aI19
ag39
aa(lp2286
S'2015-07-07T11:31:41.196455'
p2287
aI4
ag42
aI30
ag43
aa(lp2288
S'2015-07-07T11:59:58.221791'
p2289
aI1
ag46
aI60
ag47
aa(lp2290
S'2015-07-07T12:28:29.280250'
p2291
aI6
ag50
aI30
ag51
aa(lp2292
S'2015-07-07T13:52:26.582520'
p2293
aI1
ag58
aI55
ag59
aa(lp2294
S'2015-07-07T15:33:50.260792'
p2295
aI3
ag1025
aI18
ag1026
aa(lp2296
S'2015-07-09T13:12:58.838356'
p2297
aI3
ag66
aI9
ag67
aa(lp2298
S'2015-07-09T16:42:59.699994'
p2299
aI0
ag598
aI14
ag599
aa(lp2300
S'2015-07-14T12:01:51.728297'
p2301
aI7
ag82
aI16
ag83
aa(lp2302
S'2015-07-14T14:20:39.401198'
p2303
aI4
ag1148
aI25
ag1149
aa(lp2304
S'2015-07-15T14:55:17.297070'
p2305
aI0
ag786
aI13
ag787
aa(lp2306
S'2015-07-15T18:08:09.689527'
p2307
aI6
ag94
aI23
ag95
aa(lp2308
S'2015-07-15T19:17:51.715208'
p2309
aI2
ag703
aI50
ag704
aa(lp2310
S'2015-07-15T19:53:30.829271'
p2311
aI7
ag98
aI24
ag99
aa(lp2312
S'2015-07-16T13:49:11.367972'
p2313
aI0
ag235
aI20
ag236
aa(lp2314
S'2015-07-16T17:50:16.817933'
p2315
aI4
ag106
aI28
ag107
aa(lp2316
S'2015-07-21T13:02:42.935164'
p2317
aI5
ag970
aI22
ag971
aa(lp2318
S'2015-07-22T11:44:14.126375'
p2319
aI0
ag118
aI9
ag119
aa(lp2320
S'2015-07-22T12:17:32.355309'
p2321
aI6
ag122
aI21
ag123
aa(lp2322
S'2015-07-22T14:31:08.978790'
p2323
aI4
ag543
aI27
ag544
aa(lp2324
S'2015-07-22T17:12:06.716646'
p2325
aI8
ag547
aI2
ag548
aa(lp2326
S'2015-07-30T11:46:27.973148'
p2327
aI5
ag1263
aI24
ag1264
aa(lp2328
S'2015-07-30T14:07:42.144901'
p2329
aI0
ag134
aI15
ag135
aa(lp2330
S'2015-07-30T15:46:46.993870'
p2331
aI8
ag415
aI5
ag416
aa(lp2332
S'2015-07-30T16:56:30.453042'
p2333
aI6
ag142
aI29
ag143
aasg144
(dp2334
I0
I71
sI1
I162
sI2
I91
sI3
I27
sI4
I162
sI5
I68
sI6
I144
sI7
I40
sI8
I9
ssg146
g2262
sbsVU054JSB58
p2335
(iUser
User
p2336
(dp2337
g4
Vbvruwink
p2338
sg6
(dp2339
I0
I4
sI1
I4
sI2
I4
sI3
I1
sI4
I7
sI5
I1
sI6
I7
sI7
I4
sI8
I2
ssg8
(dp2340
sg12
VBobby Vruwink
p2341
sg14
(lp2342
(lp2343
S'2015-06-29T15:20:26.334993'
p2344
aI4
ag912
aI29
ag913
aa(lp2345
S'2015-06-30T16:05:07.979369'
p2346
aI4
ag18
aI24
ag19
aa(lp2347
S'2015-06-30T16:30:10.015177'
p2348
aI3
ag1098
aI17
ag1099
aa(lp2349
S'2015-07-01T16:24:46.697861'
p2350
aI4
ag833
aI29
ag834
aa(lp2351
S'2015-07-02T11:54:28.309126'
p2352
aI1
ag1438
aI46
ag1439
aa(lp2353
S'2015-07-02T13:36:41.815745'
p2354
aI5
ag30
aI22
ag31
aa(lp2355
S'2015-07-06T12:07:12.575022'
p2356
aI2
ag175
aI41
ag176
aa(lp2357
S'2015-07-06T13:56:46.004079'
p2358
aI8
ag179
aI4
ag180
aa(lp2359
S'2015-07-07T11:02:34.041261'
p2360
aI6
ag38
aI19
ag39
aa(lp2361
S'2015-07-07T11:31:41.196466'
p2362
aI4
ag42
aI30
ag43
aa(lp2363
S'2015-07-07T11:59:58.221800'
p2364
aI1
ag46
aI60
ag47
aa(lp2365
S'2015-07-07T12:28:29.280258'
p2366
aI6
ag50
aI30
ag51
aa(lp2367
S'2015-07-07T13:52:26.582529'
p2368
aI1
ag58
aI55
ag59
aa(lp2369
S'2015-07-07T14:58:07.738675'
p2370
aI4
ag1130
aI22
ag1131
aa(lp2371
S'2015-07-09T15:16:37.216565'
p2372
aI2
ag1726
aI46
ag1727
aa(lp2373
S'2015-07-13T12:54:27.871117'
p2374
aI7
ag1231
aI19
ag1232
aa(lp2375
S'2015-07-13T15:18:53.333357'
p2376
aI0
ag1142
aI8
ag1143
aa(lp2377
S'2015-07-14T12:01:51.728306'
p2378
aI7
ag82
aI16
ag83
aa(lp2379
S'2015-07-14T12:35:54.575354'
p2380
aI7
ag865
aI28
ag866
aa(lp2381
S'2015-07-14T16:39:22.210435'
p2382
aI6
ag869
aI17
ag870
aa(lp2383
S'2015-07-15T13:13:16.171864'
p2384
aI4
ag517
aI20
ag518
aa(lp2385
S'2015-07-15T18:08:09.689536'
p2386
aI6
ag94
aI23
ag95
aa(lp2387
S'2015-07-15T19:17:51.715181'
p2388
aI2
ag703
aI50
ag704
aa(lp2389
S'2015-07-15T19:53:30.829280'
p2390
aI7
ag98
aI24
ag99
aa(lp2391
S'2015-07-16T15:07:15.182317'
p2392
aI2
ag709
aI41
ag710
aa(lp2393
S'2015-07-16T17:50:16.817938'
p2394
aI4
ag106
aI28
ag107
aa(lp2395
S'2015-07-21T12:29:48.031458'
p2396
aI1
ag110
aI58
ag111
aa(lp2397
S'2015-07-22T11:44:14.126379'
p2398
aI0
ag118
aI9
ag119
aa(lp2399
S'2015-07-22T12:17:32.355314'
p2400
aI6
ag122
aI21
ag123
aa(lp2401
S'2015-07-22T15:30:10.478116'
p2402
aI8
ag126
aI1
ag127
aa(lp2403
S'2015-07-30T10:37:42.574038'
p2404
aI0
ag446
aI18
ag447
aa(lp2405
S'2015-07-30T12:58:38.676466'
p2406
aI6
ag1178
aI23
ag1179
aa(lp2407
S'2015-07-30T14:07:42.144906'
p2408
aI0
ag134
aI15
ag135
aa(lp2409
S'2015-07-30T16:56:30.453046'
p2410
aI6
ag142
aI29
ag143
aasg144
(dp2411
I0
I50
sI1
I219
sI2
I178
sI3
I17
sI4
I182
sI5
I22
sI6
I162
sI7
I87
sI8
I5
ssg146
g2335
sbsVU069T0RD4
p2412
(iUser
User
p2413
(dp2414
g4
Vmichelle.cheng
p2415
sg6
(dp2416
I0
I3
sI1
I1
sI2
I3
sI3
I2
sI4
I3
sI5
I1
sI6
I3
sI7
I3
sI8
I1
ssg8
(dp2417
sg12
VMichelle Cheng
p2418
sg14
(lp2419
(lp2420
S'2015-07-08T11:18:36.614748'
p2421
aI2
ag1799
aI44
ag1800
aa(lp2422
S'2015-07-09T13:12:58.838339'
p2423
aI3
ag66
aI9
ag67
aa(lp2424
S'2015-07-09T15:45:50.864682'
p2425
aI7
ag205
aI23
ag206
aa(lp2426
S'2015-07-13T09:56:29.773509'
p2427
aI0
ag1730
aI13
ag1731
aa(lp2428
S'2015-07-13T14:07:46.804092'
p2429
aI8
ag687
aI1
ag688
aa(lp2430
S'2015-07-14T11:30:19.681798'
p2431
aI2
ag691
aI49
ag692
aa(lp2432
S'2015-07-14T12:01:51.728283'
p2433
aI7
ag82
aI16
ag83
aa(lp2434
S'2015-07-14T14:20:39.401233'
p2435
aI4
ag1148
aI25
ag1149
aa(lp2436
S'2015-07-15T16:30:35.952713'
p2437
aI3
ag875
aI15
ag876
aa(lp2438
S'2015-07-15T18:08:09.689544'
p2439
aI6
ag94
aI23
ag95
aa(lp2440
S'2015-07-15T19:53:30.829289'
p2441
aI7
ag98
aI24
ag99
aa(lp2442
S'2015-07-16T16:46:26.925510'
p2443
aI1
ag102
aI42
ag103
aa(lp2444
S'2015-07-16T17:50:16.817916'
p2445
aI4
ag106
aI28
ag107
aa(lp2446
S'2015-07-21T13:02:42.935178'
p2447
aI5
ag970
aI22
ag971
aa(lp2448
S'2015-07-22T11:44:14.126359'
p2449
aI0
ag118
aI9
ag119
aa(lp2450
S'2015-07-22T12:17:32.355291'
p2451
aI6
ag122
aI21
ag123
aa(lp2452
S'2015-07-22T14:31:08.978801'
p2453
aI4
ag543
aI27
ag544
aa(lp2454
S'2015-07-30T13:33:24.011968'
p2455
aI2
ag725
aI46
ag726
aa(lp2456
S'2015-07-30T14:07:42.144910'
p2457
aI0
ag134
aI15
ag135
aa(lp2458
S'2015-07-30T16:56:30.453050'
p2459
aI6
ag142
aI29
ag143
aasg144
(dp2460
I0
I37
sI1
I42
sI2
I139
sI3
I24
sI4
I80
sI5
I22
sI6
I73
sI7
I63
sI8
I1
ssg146
g2412
sbsVU04DYSRJT
p2461
(iUser
User
p2462
(dp2463
g4
Vaduda
p2464
sg6
(dp2465
I0
I3
sI1
I3
sI2
I3
sI3
I1
sI4
I4
sI5
I1
sI6
I7
sI7
I3
sI8
I1
ssg8
(dp2466
S'2015-06-26 15:23:02.611895'
p2467
(dp2468
ssg12
VAndrew Duda
p2469
sg14
(lp2470
(lp2471
S'2015-06-29T15:39:08.548955'
p2472
aI8
ag744
aI4
ag745
aa(lp2473
S'2015-06-30T16:05:07.979373'
p2474
aI4
ag18
aI24
ag19
aa(lp2475
S'2015-07-01T11:13:10.484606'
p2476
aI0
ag161
aI12
ag162
aa(lp2477
S'2015-07-01T16:40:54.522567'
p2478
aI1
ag26
aI41
ag27
aa(lp2479
S'2015-07-02T13:36:41.815749'
p2480
aI5
ag30
aI22
ag31
aa(lp2481
S'2015-07-06T17:16:34.225503'
p2482
aI6
ag183
aI22
ag184
aa(lp2483
S'2015-07-07T11:02:34.041267'
p2484
aI6
ag38
aI19
ag39
aa(lp2485
S'2015-07-07T11:31:41.196470'
p2486
aI4
ag42
aI30
ag43
aa(lp2487
S'2015-07-07T11:59:58.221804'
p2488
aI1
ag46
aI60
ag47
aa(lp2489
S'2015-07-07T12:28:29.280262'
p2490
aI6
ag50
aI30
ag51
aa(lp2491
S'2015-07-07T13:52:26.582537'
p2492
aI1
ag58
aI55
ag59
aa(lp2493
S'2015-07-07T17:12:11.001890'
p2494
aI3
ag495
aI10
ag496
aa(lp2495
S'2015-07-13T15:48:07.752679'
p2496
aI2
ag859
aI42
ag860
aa(lp2497
S'2015-07-14T12:01:51.728315'
p2498
aI7
ag82
aI16
ag83
aa(lp2499
S'2015-07-14T12:35:54.575367'
p2500
aI7
ag865
aI28
ag866
aa(lp2501
S'2015-07-15T17:40:08.629978'
p2502
aI2
ag1041
aI49
ag1042
aa(lp2503
S'2015-07-15T18:08:09.689549'
p2504
aI6
ag94
aI23
ag95
aa(lp2505
S'2015-07-15T19:53:30.829293'
p2506
aI7
ag98
aI24
ag99
aa(lp2507
S'2015-07-15T20:27:24.747009'
p2508
aI6
ag231
aI21
ag232
aa(lp2509
S'2015-07-16T15:07:15.182330'
p2510
aI2
ag709
aI41
ag710
aa(lp2511
S'2015-07-16T17:50:16.817947'
p2512
aI4
ag106
aI28
ag107
aa(lp2513
S'2015-07-22T11:44:14.126388'
p2514
aI0
ag118
aI9
ag119
aa(lp2515
S'2015-07-22T12:17:32.355323'
p2516
aI6
ag122
aI21
ag123
aa(lp2517
S'2015-07-30T14:07:42.144915'
p2518
aI0
ag134
aI15
ag135
aa(lp2519
S'2015-07-30T15:14:14.081027'
p2520
aI4
ag138
aI28
ag139
aa(lp2521
S'2015-07-30T16:56:30.453054'
p2522
aI6
ag142
aI29
ag143
aasg144
(dp2523
I0
I36
sI1
I156
sI2
I132
sI3
I10
sI4
I110
sI5
I22
sI6
I165
sI7
I68
sI8
I4
ssg146
g2461
sbsVU04S8FDE1
p2524
(iUser
User
p2525
(dp2526
g4
Vericw
p2527
sg6
(dp2528
I0
I4
sI1
I4
sI2
I2
sI3
I3
sI4
I6
sI5
I1
sI6
I5
sI7
I4
sI8
I2
ssg8
(dp2529
S'2015-06-26 15:23:02.611907'
p2530
(dp2531
I3
I17
sssg12
VEric Wishart
p2532
sg14
(lp2533
(lp2534
S'2015-06-26T14:28:32.293436'
p2535
aI3
aVchair dips
p2536
aI17
aVrep
p2537
aa(lp2538
S'2015-06-30T16:05:07.979381'
p2539
aI4
ag18
aI24
ag19
aa(lp2540
S'2015-07-01T11:31:29.015398'
p2541
aI1
ag922
aI42
ag923
aa(lp2542
S'2015-07-01T17:06:58.706033'
p2543
aI3
ag657
aI17
ag658
aa(lp2544
S'2015-07-02T10:39:25.125315'
p2545
aI7
ag1704
aI27
ag1705
aa(lp2546
S'2015-07-02T13:36:41.815753'
p2547
aI5
ag30
aI22
ag31
aa(lp2548
S'2015-07-07T11:02:34.041272'
p2549
aI6
ag38
aI19
ag39
aa(lp2550
S'2015-07-07T11:31:41.196484'
p2551
aI4
ag42
aI30
ag43
aa(lp2552
S'2015-07-07T11:59:58.221809'
p2553
aI1
ag46
aI60
ag47
aa(lp2554
S'2015-07-07T12:28:29.280266'
p2555
aI6
ag50
aI30
ag51
aa(lp2556
S'2015-07-07T13:52:26.582551'
p2557
aI1
ag58
aI55
ag59
aa(lp2558
S'2015-07-07T16:40:30.997421'
p2559
aI0
ag62
aI17
ag63
aa(lp2560
S'2015-07-08T11:18:36.614607'
p2561
aI2
ag1799
aI44
ag1800
aa(lp2562
S'2015-07-09T14:10:56.128033'
p2563
aI4
ag499
aI24
ag500
aa(lp2564
S'2015-07-13T13:30:08.762384'
p2565
aI3
ag1464
aI16
ag1465
aa(lp2566
S'2015-07-13T16:59:46.703578'
p2567
aI0
ag1468
aI8
ag1469
aa(lp2568
S'2015-07-14T10:55:58.387259'
p2569
aI8
ag1389
aI2
ag1390
aa(lp2570
S'2015-07-14T12:01:51.728320'
p2571
aI7
ag82
aI16
ag83
aa(lp2572
S'2015-07-14T14:20:39.401239'
p2573
aI4
ag1148
aI25
ag1149
aa(lp2574
S'2015-07-15T13:13:16.171858'
p2575
aI4
ag517
aI20
ag518
aa(lp2576
S'2015-07-15T16:30:35.952740'
p2577
aI3
ag875
aI15
ag876
aa(lp2578
S'2015-07-15T18:08:09.689553'
p2579
aI6
ag94
aI23
ag95
aa(lp2580
S'2015-07-15T19:53:30.829298'
p2581
aI7
ag98
aI24
ag99
aa(lp2582
S'2015-07-16T15:07:15.182336'
p2583
aI2
ag709
aI41
ag710
aa(lp2584
S'2015-07-16T17:50:16.817952'
p2585
aI4
ag106
aI28
ag107
aa(lp2586
S'2015-07-21T14:08:39.110090'
p2587
aI7
ag887
aI16
ag888
aa(lp2588
S'2015-07-22T11:44:14.126392'
p2589
aI0
ag118
aI9
ag119
aa(lp2590
S'2015-07-22T12:17:32.355327'
p2591
aI6
ag122
aI21
ag123
aa(lp2592
S'2015-07-22T13:18:59.091605'
p2593
aI1
ag440
aI43
ag441
aa(lp2594
S'2015-07-30T14:07:42.144919'
p2595
aI0
ag134
aI15
ag135
aa(lp2596
S'2015-07-30T14:44:39.941688'
p2597
aI8
ag259
aI5
ag260
aa(lp2598
S'2015-07-30T16:56:30.453058'
p2599
aI6
ag142
aI29
ag143
aasg144
(dp2600
I0
I49
sI1
I200
sI2
I85
sI3
I48
sI4
I151
sI5
I22
sI6
I122
sI7
I83
sI8
I7
ssg146
g2524
sbsVU04S9GVDX
p2601
(iUser
User
p2602
(dp2603
g4
Vadamberm
p2604
sg6
(dp2605
I0
I5
sI1
I7
sI2
I3
sI3
I3
sI4
I5
sI5
I2
sI6
I6
sI7
I3
sI8
I2
ssg8
(dp2606
S'2015-06-26 15:23:02.611920'
p2607
(dp2608
I5
I23
sssg12
VAdam Berm
p2609
sg14
(lp2610
(lp2611
S'2015-06-26T14:44:24.492242'
p2612
aI5
ag1286
aI23
ag1287
aa(lp2613
S'2015-06-29T16:23:27.481306'
p2614
aI1
aVplanks
p2615
aI46
aVsecond
p2616
aa(lp2617
S'2015-06-30T16:05:07.979377'
p2618
aI4
ag18
aI24
ag19
aa(lp2619
S'2015-07-01T11:13:10.484600'
p2620
aI0
ag161
aI12
ag162
aa(lp2621
S'2015-07-01T13:55:38.831467'
p2622
aI2
ag574
aI46
ag575
aa(lp2623
S'2015-07-02T13:12:15.754181'
p2624
aI3
ag1533
aI10
ag1534
aa(lp2625
S'2015-07-02T13:36:41.815766'
p2626
aI5
ag30
aI22
ag31
aa(lp2627
S'2015-07-06T12:48:11.249914'
p2628
aI6
ag292
aI29
ag293
aa(lp2629
S'2015-07-06T15:03:15.227715'
p2630
aI1
ag296
aI40
ag297
aa(lp2631
S'2015-07-07T11:02:34.041277'
p2632
aI6
ag38
aI19
ag39
aa(lp2633
S'2015-07-07T11:31:41.196489'
p2634
aI4
ag42
aI30
ag43
aa(lp2635
S'2015-07-07T11:59:58.221814'
p2636
aI1
ag46
aI60
ag47
aa(lp2637
S'2015-07-07T12:28:29.280271'
p2638
aI6
ag50
aI30
ag51
aa(lp2639
S'2015-07-07T13:52:26.582556'
p2640
aI1
ag58
aI55
ag59
aa(lp2641
S'2015-07-07T16:03:26.601672'
p2642
aI4
ag197
aI20
ag198
aa(lp2643
S'2015-07-08T11:54:00.769248'
p2644
aI4
ag201
aI23
ag202
aa(lp2645
S'2015-07-09T15:45:50.864676'
p2646
aI7
ag205
aI23
ag206
aa(lp2647
S'2015-07-13T13:30:08.762356'
p2648
aI3
ag1464
aI16
ag1465
aa(lp2649
S'2015-07-13T16:59:46.703539'
p2650
aI0
ag1468
aI8
ag1469
aa(lp2651
S'2015-07-14T10:55:58.387287'
p2652
aI8
ag1389
aI2
ag1390
aa(lp2653
S'2015-07-14T12:01:51.728325'
p2654
aI7
ag82
aI16
ag83
aa(lp2655
S'2015-07-14T14:57:34.578463'
p2656
aI2
ag215
aI42
ag216
aa(lp2657
S'2015-07-15T14:55:17.297045'
p2658
aI0
ag786
aI13
ag787
aa(lp2659
S'2015-07-15T18:08:09.689557'
p2660
aI6
ag94
aI23
ag95
aa(lp2661
S'2015-07-15T18:42:43.886779'
p2662
aI3
ag792
aI20
ag793
aa(lp2663
S'2015-07-15T19:53:30.829302'
p2664
aI7
ag98
aI24
ag99
aa(lp2665
S'2015-07-16T16:46:26.925543'
p2666
aI1
ag102
aI42
ag103
aa(lp2667
S'2015-07-16T17:50:16.817956'
p2668
aI4
ag106
aI28
ag107
aa(lp2669
S'2015-07-21T12:29:48.031452'
p2670
aI1
ag110
aI58
ag111
aa(lp2671
S'2015-07-22T11:44:14.126396'
p2672
aI0
ag118
aI9
ag119
aa(lp2673
S'2015-07-22T12:17:32.355331'
p2674
aI6
ag122
aI21
ag123
aa(lp2675
S'2015-07-22T13:18:59.091632'
p2676
aI1
ag440
aI43
ag441
aa(lp2677
S'2015-07-22T16:35:52.437544'
p2678
aI5
ag1172
aI23
ag1173
aa(lp2679
S'2015-07-30T12:22:16.422972'
p2680
aI2
ag1065
aI44
ag1066
aa(lp2681
S'2015-07-30T14:07:42.144923'
p2682
aI0
ag134
aI15
ag135
aa(lp2683
S'2015-07-30T15:46:46.993878'
p2684
aI8
ag415
aI5
ag416
aa(lp2685
S'2015-07-30T16:56:30.453072'
p2686
aI6
ag142
aI29
ag143
aasg144
(dp2687
I0
I57
sI1
I344
sI2
I132
sI3
I46
sI4
I125
sI5
I45
sI6
I151
sI7
I63
sI8
I7
ssg146
g2601
sbs.